ccopy_reg
_reconstructor
p0
(cutil
Counter
p1
c__builtin__
dict
p2
(dp3
(S'[[1 1 1 1 1 1 1 1 1 1 1 1 1 1 1 1]\n [1 1 1 1 1 1 1 1 1 1 1 1 1 1 1 1]\n [1 1 1 1 1 1 1 1 1 1 1 1 1 1 1 1]\n [0 0 0 0 0 0 0 0 0 0 0 0 0 0 0 0]\n [0 0 0 0 0 0 0 0 0 0 0 0 0 0 0 0]\n [1 1 0 0 0 0 0 0 0 0 0 0 0 0 0 0]\n [1 1 1 0 0 3 0 0 0 0 0 0 0 0 0 0]\n [1 1 1 1 0 0 0 0 0 0 0 0 0 0 0 0]\n [1 1 1 1 1 1 1 1 1 1 1 1 0 0 1 1]\n [1 1 1 1 1 1 1 1 1 1 1 1 0 0 1 1]\n [1 1 1 1 1 1 1 1 1 1 1 1 0 0 1 1]\n [1 1 1 1 1 1 1 1 1 1 1 1 0 0 1 1]\n [1 1 1 1 1 1 1 1 1 1 1 1 0 0 1 1]]'
p4
I2
tp5
I0
s(S'[[1 1 1 1 1 1 1 1 1 1 1 1 1 1 1 1]\n [1 1 1 1 1 1 1 1 1 1 1 1 1 1 1 1]\n [1 1 1 1 1 1 1 1 1 1 1 1 1 1 1 1]\n [0 0 0 0 0 0 0 0 0 0 0 0 0 0 0 0]\n [0 0 0 0 0 3 0 0 0 0 0 0 0 0 0 0]\n [1 1 1 0 0 3 0 0 0 0 0 0 0 0 0 0]\n [1 1 1 1 0 0 0 0 0 0 0 0 0 0 0 0]\n [1 1 1 1 1 0 0 0 0 0 0 0 0 0 0 0]\n [1 1 1 1 1 1 1 1 1 1 1 1 1 0 0 1]\n [1 1 1 1 1 1 1 1 1 1 1 1 1 0 0 1]\n [1 1 1 1 1 1 1 1 1 1 1 1 1 0 0 1]\n [1 1 1 1 1 1 1 1 1 1 1 1 1 0 0 1]\n [1 1 1 1 1 1 1 1 1 1 1 1 1 0 0 1]]'
p6
I0
tp7
I0
s(S'[[1 1 1 1 1 1 1 1 1 1 1 1 1 1 1 1]\n [1 1 1 1 1 1 1 1 1 1 1 1 1 1 1 1]\n [1 1 1 1 1 1 1 1 1 1 1 1 1 1 1 1]\n [0 0 0 0 0 0 0 0 0 0 0 0 0 0 0 0]\n [0 0 0 0 0 0 0 0 0 0 0 0 0 0 0 0]\n [0 0 0 0 0 0 0 0 0 0 0 0 0 0 0 0]\n [0 0 0 0 0 0 0 0 0 0 0 0 0 0 0 0]\n [0 0 0 0 0 3 0 0 0 0 0 0 0 0 0 0]\n [1 1 1 1 1 1 1 1 0 0 1 1 1 1 1 1]\n [1 1 1 1 1 1 1 1 0 0 1 1 1 1 1 1]\n [1 1 1 1 1 1 1 1 0 0 1 1 1 1 1 1]\n [1 1 1 1 1 1 1 1 0 0 1 1 1 1 1 1]\n [1 1 1 1 1 1 1 1 0 0 1 1 1 1 1 1]]'
p8
I10
tp9
F0.6401324179981072
s(S'[[1 1 1 1 1 1 1 1 1 1 1 1 1 1 1 1]\n [1 1 1 1 1 1 1 1 1 1 1 1 1 1 1 1]\n [1 1 1 1 1 1 1 1 1 1 1 1 1 1 1 1]\n [0 0 0 0 0 0 0 0 0 0 0 0 0 0 0 0]\n [0 0 0 0 0 0 0 0 0 0 0 0 0 0 0 0]\n [1 1 1 0 0 0 0 0 0 0 0 0 0 0 0 0]\n [1 1 1 1 0 0 0 0 0 0 0 0 0 0 0 0]\n [1 1 1 1 1 3 0 0 0 0 0 0 0 0 0 0]\n [1 1 1 1 1 1 1 1 1 1 1 1 1 0 0 1]\n [1 1 1 1 1 1 1 1 1 1 1 1 1 0 0 1]\n [1 1 1 1 1 1 1 1 1 1 1 1 1 0 0 1]\n [1 1 1 1 1 1 1 1 1 1 1 1 1 0 0 1]\n [1 1 1 1 1 1 1 1 1 1 1 1 1 0 0 1]]'
p10
I7
tp11
F0.0
s(S'[[1 1 1 1 1 1 1 1 1 1 1 1 1 1 1 1]\n [1 1 1 1 1 1 1 1 1 1 1 1 1 1 1 1]\n [1 1 1 1 1 1 1 1 1 1 1 1 1 1 1 1]\n [0 0 0 3 3 0 0 0 0 0 0 0 0 0 0 0]\n [0 0 0 0 0 0 0 0 0 0 0 0 0 0 0 0]\n [1 1 1 0 0 0 0 0 0 0 0 0 0 0 0 0]\n [1 1 1 1 0 0 0 0 0 0 0 0 0 0 0 0]\n [1 1 1 1 1 0 0 0 0 0 0 0 0 0 0 0]\n [1 1 1 1 1 1 1 1 1 1 1 1 1 0 0 1]\n [1 1 1 1 1 1 1 1 1 1 1 1 1 0 0 1]\n [1 1 1 1 1 1 1 1 1 1 1 1 1 0 0 1]\n [1 1 1 1 1 1 1 1 1 1 1 1 1 0 0 1]\n [1 1 1 1 1 1 1 1 1 1 1 1 1 0 0 1]]'
p12
I12
tp13
I0
s(S'[[1 1 1 1 1 1 1 1 1 1 1 1 1 1 1 1]\n [1 1 1 1 1 1 1 1 1 1 1 1 1 1 1 1]\n [1 1 1 1 1 1 1 1 1 1 1 1 1 1 1 1]\n [0 0 0 0 3 0 0 0 0 0 0 0 0 0 0 0]\n [0 0 0 0 3 0 0 0 0 0 0 0 0 0 0 0]\n [1 1 1 0 0 0 0 0 0 0 0 0 0 0 0 0]\n [1 1 1 1 0 0 0 0 0 0 0 0 0 0 0 0]\n [1 1 1 1 1 0 0 0 0 0 0 0 0 0 0 0]\n [1 1 1 1 1 1 1 1 1 1 1 1 1 0 0 1]\n [1 1 1 1 1 1 1 1 1 1 1 1 1 0 0 1]\n [1 1 1 1 1 1 1 1 1 1 1 1 1 0 0 1]\n [1 1 1 1 1 1 1 1 1 1 1 1 1 0 0 1]\n [1 1 1 1 1 1 1 1 1 1 1 1 1 0 0 1]]'
p14
I2
tp15
I0
s(S'[[1 1 1 1 1 1 1 1 1 1 1 1 1 1 1 1]\n [1 1 1 1 1 1 1 1 1 1 1 1 1 1 1 1]\n [1 1 1 1 1 1 1 1 1 1 1 1 1 1 1 1]\n [0 0 0 0 0 0 0 0 0 0 0 0 0 0 0 0]\n [0 0 0 0 0 0 0 0 0 0 0 0 0 0 0 0]\n [1 1 1 0 3 0 0 0 0 0 0 0 0 0 0 0]\n [1 1 1 1 0 0 0 0 0 0 0 0 0 0 0 0]\n [1 1 1 1 1 0 0 0 0 0 0 0 0 0 0 0]\n [1 1 1 1 1 1 1 1 1 1 1 1 1 0 0 1]\n [1 1 1 1 1 1 1 1 1 1 1 1 1 0 0 1]\n [1 1 1 1 1 1 1 1 1 1 1 1 1 0 0 1]\n [1 1 1 1 1 1 1 1 1 1 1 1 1 0 0 1]\n [1 1 1 1 1 1 1 1 1 1 1 1 1 0 0 1]]'
p16
I13
tp17
F0.00687344853376451
s(S'[[1 1 1 1 1 1 1 1 1 1 1 1 1 1 1 1]\n [1 1 1 1 1 1 1 1 1 1 1 1 1 1 1 1]\n [1 1 1 1 1 1 1 1 1 1 1 1 1 1 1 1]\n [0 0 0 0 3 0 0 0 0 0 0 0 0 0 0 0]\n [0 0 0 0 0 0 0 0 0 0 0 0 0 0 0 0]\n [1 1 1 0 0 0 0 0 0 0 0 0 0 0 0 0]\n [1 1 1 1 0 0 0 0 0 0 0 0 0 0 0 0]\n [1 1 1 1 1 0 0 0 0 0 0 0 0 0 0 0]\n [1 1 1 1 1 1 1 1 1 1 1 1 1 0 0 1]\n [1 1 1 1 1 1 1 1 1 1 1 1 1 0 0 1]\n [1 1 1 1 1 1 1 1 1 1 1 1 1 0 0 1]\n [1 1 1 1 1 1 1 1 1 1 1 1 1 0 0 1]\n [1 1 1 1 1 1 1 1 1 1 1 1 1 0 0 1]]'
p18
I0
tp19
I0
s(S'[[1 1 1 1 1 1 1 1 1 1 1 1 1 1 1 1]\n [1 1 1 1 1 1 1 1 1 1 1 1 1 1 1 1]\n [1 1 1 1 1 1 1 1 1 1 1 1 1 1 1 1]\n [0 0 3 0 0 0 0 0 0 0 0 0 0 0 0 0]\n [0 0 0 0 0 0 0 0 0 0 0 0 0 0 0 0]\n [1 1 1 0 0 0 0 0 0 0 0 0 0 0 0 0]\n [1 1 1 1 0 0 0 0 0 0 0 0 0 0 0 0]\n [1 1 1 1 1 0 0 0 0 0 0 0 0 0 0 0]\n [1 1 1 1 1 1 1 1 1 1 1 1 1 0 0 1]\n [1 1 1 1 1 1 1 1 1 1 1 1 1 0 0 1]\n [1 1 1 1 1 1 1 1 1 1 1 1 1 0 0 1]\n [1 1 1 1 1 1 1 1 1 1 1 1 1 0 0 1]\n [1 1 1 1 1 1 1 1 1 1 1 1 1 0 0 1]]'
p20
I9
tp21
I0
s(S'[[1 1 1 1 1 1 1 1 1 1 1 1 1 1 1 1]\n [1 1 1 1 1 1 1 1 1 1 1 1 1 1 1 1]\n [1 1 1 1 1 1 1 1 1 1 1 1 1 1 1 1]\n [0 0 0 0 0 0 0 0 0 0 0 0 0 0 0 0]\n [0 0 0 0 0 3 0 0 0 0 0 0 0 0 0 0]\n [1 0 0 0 0 0 0 0 0 0 0 0 0 0 0 0]\n [1 1 0 0 0 0 0 0 0 0 0 0 0 0 0 0]\n [1 1 1 0 0 0 0 0 0 0 0 0 0 0 0 0]\n [1 1 1 1 1 1 1 1 1 1 1 0 0 1 1 1]\n [1 1 1 1 1 1 1 1 1 1 1 0 0 1 1 1]\n [1 1 1 1 1 1 1 1 1 1 1 0 0 1 1 1]\n [1 1 1 1 1 1 1 1 1 1 1 0 0 1 1 1]\n [1 1 1 1 1 1 1 1 1 1 1 0 0 1 1 1]]'
p22
I4
tp23
I0
s(S'[[1 1 1 1 1 1 1 1 1 1 1 1 1 1 1 1]\n [1 1 1 1 1 1 1 1 1 1 1 1 1 1 1 1]\n [1 1 1 1 1 1 1 1 1 1 1 1 1 1 1 1]\n [0 0 0 0 0 0 0 0 0 0 0 0 0 0 0 0]\n [0 0 0 0 0 0 0 0 0 0 0 0 0 0 0 0]\n [1 0 0 0 0 0 0 0 0 0 0 0 0 0 0 0]\n [1 1 0 0 0 0 0 0 0 0 0 0 0 0 0 0]\n [1 1 1 0 0 0 3 0 0 0 0 0 0 0 0 0]\n [1 1 1 1 1 1 1 1 1 1 1 0 0 1 1 1]\n [1 1 1 1 1 1 1 1 1 1 1 0 0 1 1 1]\n [1 1 1 1 1 1 1 1 1 1 1 0 0 1 1 1]\n [1 1 1 1 1 1 1 1 1 1 1 0 0 1 1 1]\n [1 1 1 1 1 1 1 1 1 1 1 0 0 1 1 1]]'
p24
I7
tp25
F0.9237
s(S'[[1 1 1 1 1 1 1 1 1 1 1 1 1 1 1 1]\n [1 1 1 1 1 1 1 1 1 1 1 1 1 1 1 1]\n [1 1 1 1 1 1 1 1 1 1 1 1 1 1 1 1]\n [0 0 0 0 0 0 0 0 0 0 0 0 0 0 0 0]\n [0 0 0 0 0 0 0 0 0 0 0 0 0 0 0 0]\n [0 0 0 0 0 0 0 0 0 0 0 0 0 0 0 0]\n [0 0 0 0 0 3 0 0 0 0 0 0 0 0 0 0]\n [1 0 0 0 0 0 0 0 0 0 0 0 0 0 0 0]\n [1 1 1 1 1 1 1 1 1 0 0 1 1 1 1 1]\n [1 1 1 1 1 1 1 1 1 0 0 1 1 1 1 1]\n [1 1 1 1 1 1 1 1 1 0 0 1 1 1 1 1]\n [1 1 1 1 1 1 1 1 1 0 0 1 1 1 1 1]\n [1 1 1 1 1 1 1 1 1 0 0 1 1 1 1 1]]'
p26
I1
tp27
I0
s(S'[[1 1 1 1 1 1 1 1 1 1 1 1 1 1 1 1]\n [1 1 1 1 1 1 1 1 1 1 1 1 1 1 1 1]\n [1 1 1 1 1 1 1 1 1 1 1 1 1 1 1 1]\n [0 0 0 0 0 0 0 0 0 0 0 0 0 0 0 0]\n [0 0 0 0 0 0 0 0 0 0 0 0 0 0 0 0]\n [1 1 1 0 0 0 0 0 0 0 0 0 0 0 0 0]\n [1 1 1 1 3 0 0 0 0 0 0 0 0 0 0 0]\n [1 1 1 1 1 0 0 0 0 0 0 0 0 0 0 0]\n [1 1 1 1 1 1 1 1 1 1 1 1 1 0 0 1]\n [1 1 1 1 1 1 1 1 1 1 1 1 1 0 0 1]\n [1 1 1 1 1 1 1 1 1 1 1 1 1 0 0 1]\n [1 1 1 1 1 1 1 1 1 1 1 1 1 0 0 1]\n [1 1 1 1 1 1 1 1 1 1 1 1 1 0 0 1]]'
p28
I10
tp29
I0
s(S'[[1 1 1 1 1 1 1 1 1 1 1 1 1 1 1 1]\n [1 1 1 1 1 1 1 1 1 1 1 1 1 1 1 1]\n [1 1 1 1 1 1 1 1 1 1 1 1 1 1 1 1]\n [0 0 0 0 0 0 0 0 0 0 0 0 0 0 0 0]\n [0 0 0 0 0 0 0 0 0 0 0 0 0 0 0 0]\n [0 0 0 0 0 0 0 0 0 0 0 0 0 0 0 0]\n [1 0 0 0 0 0 3 0 0 0 0 0 0 0 0 0]\n [1 1 0 0 0 0 0 0 0 0 0 0 0 0 0 0]\n [1 1 1 1 1 1 1 1 1 1 0 0 1 1 1 1]\n [1 1 1 1 1 1 1 1 1 1 0 0 1 1 1 1]\n [1 1 1 1 1 1 1 1 1 1 0 0 1 1 1 1]\n [1 1 1 1 1 1 1 1 1 1 0 0 1 1 1 1]\n [1 1 1 1 1 1 1 1 1 1 0 0 1 1 1 1]]'
p30
I8
tp31
I0
s(S'[[1 1 1 1 1 1 1 1 1 1 1 1 1 1 1 1]\n [1 1 1 1 1 1 1 1 1 1 1 1 1 1 1 1]\n [1 1 1 1 1 1 1 1 1 1 1 1 1 1 1 1]\n [0 0 0 0 0 0 0 0 0 0 0 0 0 0 0 0]\n [0 0 0 0 0 0 0 0 0 0 0 0 0 0 0 0]\n [0 0 0 0 0 3 0 0 0 0 0 0 0 0 0 0]\n [0 0 0 0 0 0 0 0 0 0 0 0 0 0 0 0]\n [0 0 0 0 0 0 0 0 0 0 0 0 0 0 0 0]\n [1 1 1 1 1 1 1 1 0 0 1 1 1 1 1 1]\n [1 1 1 1 1 1 1 1 0 0 1 1 1 1 1 1]\n [1 1 1 1 1 1 1 1 0 0 1 1 1 1 1 1]\n [1 1 1 1 1 1 1 1 0 0 1 1 1 1 1 1]\n [1 1 1 1 1 1 1 1 0 0 1 1 1 1 1 1]]'
p32
I13
tp33
F0.6763663945849699
s(S'[[1 1 1 1 1 1 1 1 1 1 1 1 1 1 1 1]\n [1 1 1 1 1 1 1 1 1 1 1 1 1 1 1 1]\n [1 1 1 1 1 1 1 1 1 1 1 1 1 1 1 1]\n [0 0 0 0 0 0 0 0 0 0 0 0 0 0 0 0]\n [0 0 0 3 0 0 0 0 0 0 0 0 0 0 0 0]\n [1 1 1 0 0 0 0 0 0 0 0 0 0 0 0 0]\n [1 1 1 1 0 0 0 0 0 0 0 0 0 0 0 0]\n [1 1 1 1 1 0 0 0 0 0 0 0 0 0 0 0]\n [1 1 1 1 1 1 1 1 1 1 1 1 1 0 0 1]\n [1 1 1 1 1 1 1 1 1 1 1 1 1 0 0 1]\n [1 1 1 1 1 1 1 1 1 1 1 1 1 0 0 1]\n [1 1 1 1 1 1 1 1 1 1 1 1 1 0 0 1]\n [1 1 1 1 1 1 1 1 1 1 1 1 1 0 0 1]]'
p34
I8
tp35
I0
s(S'[[1 1 1 1 1 1 1 1 1 1 1 1 1 1 1 1]\n [1 1 1 1 1 1 1 1 1 1 1 1 1 1 1 1]\n [1 1 1 1 1 1 1 1 1 1 1 1 1 1 1 1]\n [0 0 0 3 3 0 0 0 0 0 0 0 0 0 0 0]\n [0 0 0 3 3 0 0 0 0 0 0 0 0 0 0 0]\n [1 1 1 0 0 0 0 0 0 0 0 0 0 0 0 0]\n [1 1 1 1 0 0 0 0 0 0 0 0 0 0 0 0]\n [1 1 1 1 1 0 0 0 0 0 0 0 0 0 0 0]\n [1 1 1 1 1 1 1 1 1 1 1 1 1 0 0 1]\n [1 1 1 1 1 1 1 1 1 1 1 1 1 0 0 1]\n [1 1 1 1 1 1 1 1 1 1 1 1 1 0 0 1]\n [1 1 1 1 1 1 1 1 1 1 1 1 1 0 0 1]\n [1 1 1 1 1 1 1 1 1 1 1 1 1 0 0 1]]'
p36
I4
tp37
I0
s(S'[[1 1 1 1 1 1 1 1 1 1 1 1 1 1 1 1]\n [1 1 1 1 1 1 1 1 1 1 1 1 1 1 1 1]\n [1 1 1 1 1 1 1 1 1 1 1 1 1 1 1 1]\n [0 0 0 0 0 0 0 0 0 0 0 0 0 0 0 0]\n [0 0 0 0 0 0 0 0 0 0 0 0 0 0 0 0]\n [0 0 0 0 0 3 0 0 0 0 0 0 0 0 0 0]\n [0 0 0 0 0 0 0 0 0 0 0 0 0 0 0 0]\n [0 0 0 0 0 0 0 0 0 0 0 0 0 0 0 0]\n [1 1 1 1 1 1 0 0 1 1 1 1 1 1 1 1]\n [1 1 1 1 1 1 0 0 1 1 1 1 1 1 1 1]\n [1 1 1 1 1 1 0 0 1 1 1 1 1 1 1 1]\n [1 1 1 1 1 1 0 0 1 1 1 1 1 1 1 1]\n [1 1 1 1 1 1 0 0 1 1 1 1 1 1 1 1]]'
p38
I13
tp39
I0
s(S'[[1 1 1 1 1 1 1 1 1 1 1 1 1 1 1 1]\n [1 1 1 1 1 1 1 1 1 1 1 1 1 1 1 1]\n [1 1 1 1 1 1 1 1 1 1 1 1 1 1 1 1]\n [0 0 0 0 0 0 0 0 0 0 0 0 0 0 0 0]\n [0 0 0 0 0 0 0 0 0 0 0 0 0 0 0 0]\n [0 0 0 0 0 3 0 0 0 0 0 0 0 0 0 0]\n [0 0 0 0 0 3 0 0 0 0 0 0 0 0 0 0]\n [0 0 0 0 0 0 0 0 0 0 0 0 0 0 0 0]\n [1 1 1 1 1 1 1 0 0 1 1 1 1 1 1 1]\n [1 1 1 1 1 1 1 0 0 1 1 1 1 1 1 1]\n [1 1 1 1 1 1 1 0 0 1 1 1 1 1 1 1]\n [1 1 1 1 1 1 1 0 0 1 1 1 1 1 1 1]\n [1 1 1 1 1 1 1 0 0 1 1 1 1 1 1 1]]'
p40
I8
tp41
I0
s(S'[[1 1 1 1 1 1 1 1 1 1 1 1 1 1 1 1]\n [1 1 1 1 1 1 1 1 1 1 1 1 1 1 1 1]\n [1 1 1 1 1 1 1 1 1 1 1 1 1 1 1 1]\n [0 0 0 0 0 0 0 0 0 0 0 0 0 0 0 1]\n [0 0 0 0 0 0 0 0 0 0 0 0 0 0 0 1]\n [0 0 0 0 0 0 0 0 0 0 0 0 0 0 0 0]\n [0 0 0 0 0 0 0 0 0 0 0 0 0 0 0 0]\n [0 0 0 0 0 0 0 0 0 0 0 0 0 0 0 0]\n [1 1 1 1 1 0 0 1 1 1 1 1 1 1 1 1]\n [1 1 1 1 1 0 0 1 1 1 1 1 1 1 1 1]\n [1 1 1 1 1 3 0 1 1 1 1 1 1 1 1 1]\n [1 1 1 1 1 0 0 1 1 1 1 1 1 1 1 1]\n [1 1 1 1 1 0 0 1 1 1 1 1 1 1 1 1]]'
p42
I12
tp43
I0
s(S'[[1 1 1 1 1 1 1 1 1 1 1 1 1 1 1 1]\n [1 1 1 1 1 1 1 1 1 1 1 1 1 1 1 1]\n [1 1 1 1 1 1 1 1 1 1 1 1 1 1 1 1]\n [0 0 0 0 0 0 0 0 0 0 0 0 0 0 0 0]\n [0 0 0 0 0 0 0 0 0 0 0 0 0 0 0 0]\n [1 1 1 0 0 3 0 0 0 0 0 0 0 0 0 0]\n [1 1 1 1 0 0 0 0 0 0 0 0 0 0 0 0]\n [1 1 1 1 1 0 0 0 0 0 0 0 0 0 0 0]\n [1 1 1 1 1 1 1 1 1 1 1 1 1 0 0 1]\n [1 1 1 1 1 1 1 1 1 1 1 1 1 0 0 1]\n [1 1 1 1 1 1 1 1 1 1 1 1 1 0 0 1]\n [1 1 1 1 1 1 1 1 1 1 1 1 1 0 0 1]\n [1 1 1 1 1 1 1 1 1 1 1 1 1 0 0 1]]'
p44
I3
tp45
I0
s(g26
I13
tp46
I0
s(S'[[1 1 1 1 1 1 1 1 1 1 1 1 1 1 1 1]\n [1 1 1 1 1 1 1 1 1 1 1 1 1 1 1 1]\n [1 1 1 1 1 1 1 1 1 1 1 1 1 1 1 1]\n [0 0 0 0 0 0 0 0 0 0 0 0 0 0 0 0]\n [0 0 0 0 0 0 0 0 0 0 0 0 0 0 0 0]\n [0 0 0 0 0 3 0 0 0 0 0 0 0 0 0 0]\n [0 0 0 0 0 3 0 0 0 0 0 0 0 0 0 0]\n [1 0 0 0 0 0 0 0 0 0 0 0 0 0 0 0]\n [1 1 1 1 1 1 1 1 1 0 0 1 1 1 1 1]\n [1 1 1 1 1 1 1 1 1 0 0 1 1 1 1 1]\n [1 1 1 1 1 1 1 1 1 0 0 1 1 1 1 1]\n [1 1 1 1 1 1 1 1 1 0 0 1 1 1 1 1]\n [1 1 1 1 1 1 1 1 1 0 0 1 1 1 1 1]]'
p47
I12
tp48
I0
s(S'[[1 1 1 1 1 1 1 1 1 1 1 1 1 1 1 1]\n [1 1 1 1 1 1 1 1 1 1 1 1 1 1 1 1]\n [1 1 1 1 1 1 1 1 1 1 1 1 1 1 1 1]\n [0 0 0 0 0 0 0 0 0 0 0 0 0 0 0 0]\n [0 0 0 0 3 0 0 0 0 0 0 0 0 0 0 0]\n [1 1 1 0 0 0 0 0 0 0 0 0 0 0 0 0]\n [1 1 1 1 0 0 0 0 0 0 0 0 0 0 0 0]\n [1 1 1 1 1 0 0 0 0 0 0 0 0 0 0 0]\n [1 1 1 1 1 1 1 1 1 1 1 1 1 0 0 1]\n [1 1 1 1 1 1 1 1 1 1 1 1 1 0 0 1]\n [1 1 1 1 1 1 1 1 1 1 1 1 1 0 0 1]\n [1 1 1 1 1 1 1 1 1 1 1 1 1 0 0 1]\n [1 1 1 1 1 1 1 1 1 1 1 1 1 0 0 1]]'
p49
I11
tp50
I0
s(g18
I12
tp51
I0
s(S'[[1 1 1 1 1 1 1 1 1 1 1 1 1 1 1 1]\n [1 1 1 1 1 1 1 1 1 1 1 1 1 1 1 1]\n [1 1 1 1 1 1 1 1 1 1 1 1 1 1 1 1]\n [0 0 0 0 0 0 0 0 0 0 0 0 0 0 0 0]\n [0 0 0 0 0 0 0 0 0 0 0 0 0 0 0 0]\n [0 0 0 0 0 0 0 0 0 0 0 0 0 0 0 0]\n [0 0 0 0 0 3 0 0 0 0 0 0 0 0 0 0]\n [0 0 0 0 0 3 0 0 0 0 0 0 0 0 0 0]\n [1 1 1 1 1 1 1 1 0 0 1 1 1 1 1 1]\n [1 1 1 1 1 1 1 1 0 0 1 1 1 1 1 1]\n [1 1 1 1 1 1 1 1 0 0 1 1 1 1 1 1]\n [1 1 1 1 1 1 1 1 0 0 1 1 1 1 1 1]\n [1 1 1 1 1 1 1 1 0 0 1 1 1 1 1 1]]'
p52
I3
tp53
I0
s(S'[[1 1 1 1 1 1 1 1 1 1 1 1 1 1 1 1]\n [1 1 1 1 1 1 1 1 1 1 1 1 1 1 1 1]\n [1 1 1 1 1 1 1 1 1 1 1 1 1 1 1 1]\n [0 0 0 0 0 0 0 0 0 0 0 0 0 0 0 0]\n [0 0 0 0 0 0 0 0 0 0 0 0 0 0 0 0]\n [0 0 0 0 0 0 0 0 0 0 0 0 0 0 0 0]\n [0 0 0 0 0 0 0 0 0 0 0 0 0 0 0 0]\n [0 0 0 0 0 3 0 0 0 0 0 0 0 0 0 0]\n [1 1 1 1 1 1 1 0 0 1 1 1 1 1 1 1]\n [1 1 1 1 1 1 1 0 0 1 1 1 1 1 1 1]\n [1 1 1 1 1 1 1 0 0 1 1 1 1 1 1 1]\n [1 1 1 1 1 1 1 0 0 1 1 1 1 1 1 1]\n [1 1 1 1 1 1 1 0 0 1 1 1 1 1 1 1]]'
p54
I7
tp55
F1.9969844753969994
s(S'[[1 1 1 1 1 1 1 1 1 1 1 1 1 1 1 1]\n [1 1 1 1 1 1 1 1 1 1 1 1 1 1 1 1]\n [1 1 1 1 1 1 1 1 1 1 1 1 1 1 1 1]\n [0 0 0 0 0 0 0 0 0 0 0 0 0 0 0 0]\n [0 0 0 0 0 0 0 0 0 0 0 0 0 0 0 0]\n [0 0 0 0 0 0 0 0 0 0 0 0 0 0 0 0]\n [1 0 0 0 0 0 0 0 0 0 0 0 0 0 0 0]\n [1 1 0 0 0 0 3 0 0 0 0 0 0 0 0 0]\n [1 1 1 1 1 1 1 1 1 1 0 0 1 1 1 1]\n [1 1 1 1 1 1 1 1 1 1 0 0 1 1 1 1]\n [1 1 1 1 1 1 1 1 1 1 0 0 1 1 1 1]\n [1 1 1 1 1 1 1 1 1 1 0 0 1 1 1 1]\n [1 1 1 1 1 1 1 1 1 1 0 0 1 1 1 1]]'
p56
I3
tp57
I0
s(S'[[1 1 1 1 1 1 1 1 1 1 1 1 1 1 1 1]\n [1 1 1 1 1 1 1 1 1 1 1 1 1 1 1 1]\n [1 1 1 1 1 1 1 1 1 1 1 1 1 1 1 1]\n [0 0 0 0 0 0 0 0 0 0 0 0 0 0 0 0]\n [0 0 0 0 0 0 0 0 0 0 0 0 0 0 0 0]\n [0 0 0 0 0 0 0 0 0 0 0 0 0 0 0 0]\n [0 0 0 0 0 0 3 0 0 0 0 0 0 0 0 0]\n [1 0 0 0 0 0 0 0 0 0 0 0 0 0 0 0]\n [1 1 1 1 1 1 1 1 1 0 0 1 1 1 1 1]\n [1 1 1 1 1 1 1 1 1 0 0 1 1 1 1 1]\n [1 1 1 1 1 1 1 1 1 0 0 1 1 1 1 1]\n [1 1 1 1 1 1 1 1 1 0 0 1 1 1 1 1]\n [1 1 1 1 1 1 1 1 1 0 0 1 1 1 1 1]]'
p58
I2
tp59
F0.12
s(g10
I10
tp60
F0.0
s(S'[[1 1 1 1 1 1 1 1 1 1 1 1 1 1 1 1]\n [1 1 1 1 1 1 1 1 1 1 1 1 1 1 1 1]\n [1 1 1 1 1 1 1 1 1 1 1 1 1 1 1 1]\n [0 0 0 0 0 0 0 0 0 0 0 0 0 0 0 0]\n [0 0 0 0 0 0 0 0 0 0 0 0 0 0 0 0]\n [0 0 0 0 0 0 0 0 0 0 0 0 0 0 0 0]\n [0 0 0 0 0 3 0 0 0 0 0 0 0 0 0 0]\n [0 0 0 0 0 0 0 0 0 0 0 0 0 0 0 0]\n [1 1 1 1 1 1 1 1 0 0 1 1 1 1 1 1]\n [1 1 1 1 1 1 1 1 0 0 1 1 1 1 1 1]\n [1 1 1 1 1 1 1 1 0 0 1 1 1 1 1 1]\n [1 1 1 1 1 1 1 1 0 0 1 1 1 1 1 1]\n [1 1 1 1 1 1 1 1 0 0 1 1 1 1 1 1]]'
p61
I11
tp62
I0
s(g34
I10
tp63
F0.9877371396791468
s(S'[[1 1 1 1 1 1 1 1 1 1 1 1 1 1 1 1]\n [1 1 1 1 1 1 1 1 1 1 1 1 1 1 1 1]\n [1 1 1 1 1 1 1 1 1 1 1 1 1 1 1 1]\n [0 0 0 0 0 0 0 0 0 0 0 0 0 0 0 0]\n [0 0 0 0 0 0 0 0 0 0 0 0 0 0 0 0]\n [1 1 0 0 0 0 0 0 0 0 0 0 0 0 0 0]\n [1 1 1 0 0 0 0 0 0 0 0 0 0 0 0 0]\n [1 1 1 1 0 3 0 0 0 0 0 0 0 0 0 0]\n [1 1 1 1 1 1 1 1 1 1 1 1 0 0 1 1]\n [1 1 1 1 1 1 1 1 1 1 1 1 0 0 1 1]\n [1 1 1 1 1 1 1 1 1 1 1 1 0 0 1 1]\n [1 1 1 1 1 1 1 1 1 1 1 1 0 0 1 1]\n [1 1 1 1 1 1 1 1 1 1 1 1 0 0 1 1]]'
p64
I12
tp65
I0
s(S'[[1 1 1 1 1 1 1 1 1 1 1 1 1 1 1 1]\n [1 1 1 1 1 1 1 1 1 1 1 1 1 1 1 1]\n [1 1 1 1 1 1 1 1 1 1 1 1 1 1 1 1]\n [0 0 0 0 0 0 0 0 0 0 0 0 0 0 0 0]\n [0 0 0 0 0 0 0 0 0 0 0 0 0 0 0 0]\n [0 0 0 0 0 0 3 0 0 0 0 0 0 0 0 0]\n [1 0 0 0 0 0 0 0 0 0 0 0 0 0 0 0]\n [1 1 0 0 0 0 0 0 0 0 0 0 0 0 0 0]\n [1 1 1 1 1 1 1 1 1 1 0 0 1 1 1 1]\n [1 1 1 1 1 1 1 1 1 1 0 0 1 1 1 1]\n [1 1 1 1 1 1 1 1 1 1 0 0 1 1 1 1]\n [1 1 1 1 1 1 1 1 1 1 0 0 1 1 1 1]\n [1 1 1 1 1 1 1 1 1 1 0 0 1 1 1 1]]'
p66
I2
tp67
I0
s(S'[[1 1 1 1 1 1 1 1 1 1 1 1 1 1 1 1]\n [1 1 1 1 1 1 1 1 1 1 1 1 1 1 1 1]\n [1 1 1 1 1 1 1 1 1 1 1 1 1 1 1 1]\n [0 0 0 0 0 0 0 0 0 0 0 0 0 0 0 0]\n [0 0 0 0 0 0 0 0 0 0 0 0 0 0 0 0]\n [1 1 1 3 3 0 0 0 0 0 0 0 0 0 0 0]\n [1 1 1 1 0 0 0 0 0 0 0 0 0 0 0 0]\n [1 1 1 1 1 0 0 0 0 0 0 0 0 0 0 0]\n [1 1 1 1 1 1 1 1 1 1 1 1 1 0 0 1]\n [1 1 1 1 1 1 1 1 1 1 1 1 1 0 0 1]\n [1 1 1 1 1 1 1 1 1 1 1 1 1 0 0 1]\n [1 1 1 1 1 1 1 1 1 1 1 1 1 0 0 1]\n [1 1 1 1 1 1 1 1 1 1 1 1 1 0 0 1]]'
p68
I8
tp69
I0
s(g6
I9
tp70
F0.4944
s(g8
I13
tp71
F0.0554642099664617
s(g24
I12
tp72
I0
s(g12
I5
tp73
I0
s(g14
I11
tp74
I0
s(S'[[1 1 1 1 1 1 1 1 1 1 1 1 1 1 1 1]\n [1 1 1 1 1 1 1 1 1 1 1 1 1 1 1 1]\n [1 1 1 1 1 1 1 1 1 1 1 1 1 1 1 1]\n [0 0 0 0 0 0 0 0 0 0 0 0 0 0 0 0]\n [0 0 0 0 0 0 0 0 0 0 0 0 0 0 0 0]\n [1 0 0 0 0 3 3 0 0 0 0 0 0 0 0 0]\n [1 1 0 0 0 0 0 0 0 0 0 0 0 0 0 0]\n [1 1 1 0 0 0 0 0 0 0 0 0 0 0 0 0]\n [1 1 1 1 1 1 1 1 1 1 1 0 0 1 1 1]\n [1 1 1 1 1 1 1 1 1 1 1 0 0 1 1 1]\n [1 1 1 1 1 1 1 1 1 1 1 0 0 1 1 1]\n [1 1 1 1 1 1 1 1 1 1 1 0 0 1 1 1]\n [1 1 1 1 1 1 1 1 1 1 1 0 0 1 1 1]]'
p75
I3
tp76
I0
s(g20
I0
tp77
F-0.15827421698047175
s(g22
I3
tp78
I0
s(g28
I1
tp79
F0.162
s(S'[[1 1 1 1 1 1 1 1 1 1 1 1 1 1 1 1]\n [1 1 1 1 1 1 1 1 1 1 1 1 1 1 1 1]\n [1 1 1 1 1 1 1 1 1 1 1 1 1 1 1 1]\n [0 0 0 0 0 0 0 0 0 0 0 0 0 0 0 0]\n [0 0 0 0 0 0 0 0 0 0 0 0 0 0 0 0]\n [0 0 0 0 0 0 0 0 0 0 0 0 0 0 0 0]\n [0 0 0 0 0 0 0 0 0 0 0 0 0 0 0 0]\n [1 0 0 0 0 0 3 0 0 0 0 0 0 0 0 0]\n [1 1 1 1 1 1 1 1 1 0 0 1 1 1 1 1]\n [1 1 1 1 1 1 1 1 1 0 0 1 1 1 1 1]\n [1 1 1 1 1 1 1 1 1 0 0 1 1 1 1 1]\n [1 1 1 1 1 1 1 1 1 0 0 1 1 1 1 1]\n [1 1 1 1 1 1 1 1 1 0 0 1 1 1 1 1]]'
p80
I1
tp81
I0
s(S'[[1 1 1 1 1 1 1 1 1 1 1 1 1 1 1 1]\n [1 1 1 1 1 1 1 1 1 1 1 1 1 1 1 1]\n [1 1 1 1 1 1 1 1 1 1 1 1 1 1 1 1]\n [0 0 0 0 0 0 0 0 0 0 0 0 0 0 0 0]\n [0 0 0 0 0 0 0 0 0 0 0 0 0 0 0 0]\n [0 0 0 0 0 3 0 0 0 0 0 0 0 0 0 0]\n [0 0 0 0 0 0 0 0 0 0 0 0 0 0 0 0]\n [0 0 0 0 0 0 0 0 0 0 0 0 0 0 0 0]\n [1 1 1 1 1 1 1 0 0 1 1 1 1 1 1 1]\n [1 1 1 1 1 1 1 0 0 1 1 1 1 1 1 1]\n [1 1 1 1 1 1 1 0 0 1 1 1 1 1 1 1]\n [1 1 1 1 1 1 1 0 0 1 1 1 1 1 1 1]\n [1 1 1 1 1 1 1 0 0 1 1 1 1 1 1 1]]'
p82
I6
tp83
I0
s(S'[[1 1 1 1 1 1 1 1 1 1 1 1 1 1 1 1]\n [1 1 1 1 1 1 1 1 1 1 1 1 1 1 1 1]\n [1 1 1 1 1 1 1 1 1 1 1 1 1 1 1 1]\n [0 0 0 0 0 0 0 0 0 0 0 0 0 0 0 0]\n [0 0 0 0 0 0 0 0 0 0 0 0 0 0 0 0]\n [0 0 0 0 0 3 3 0 0 0 0 0 0 0 0 0]\n [0 0 0 0 0 3 3 0 0 0 0 0 0 0 0 0]\n [1 0 0 0 0 0 0 0 0 0 0 0 0 0 0 0]\n [1 1 1 1 1 1 1 1 1 0 0 1 1 1 1 1]\n [1 1 1 1 1 1 1 1 1 0 0 1 1 1 1 1]\n [1 1 1 1 1 1 1 1 1 0 0 1 1 1 1 1]\n [1 1 1 1 1 1 1 1 1 0 0 1 1 1 1 1]\n [1 1 1 1 1 1 1 1 1 0 0 1 1 1 1 1]]'
p84
I4
tp85
I0
s(S'[[1 1 1 1 1 1 1 1 1 1 1 1 1 1 1 1]\n [1 1 1 1 1 1 1 1 1 1 1 1 1 1 1 1]\n [1 1 1 1 1 1 1 1 1 1 1 1 1 1 1 1]\n [0 0 0 0 0 0 0 0 0 0 0 0 0 0 0 0]\n [0 0 0 0 0 0 0 0 0 0 0 0 0 0 0 0]\n [1 0 0 0 0 0 0 0 0 0 0 0 0 0 0 0]\n [1 1 0 0 0 0 3 0 0 0 0 0 0 0 0 0]\n [1 1 1 0 0 0 0 0 0 0 0 0 0 0 0 0]\n [1 1 1 1 1 1 1 1 1 1 1 0 0 1 1 1]\n [1 1 1 1 1 1 1 1 1 1 1 0 0 1 1 1]\n [1 1 1 1 1 1 1 1 1 1 1 0 0 1 1 1]\n [1 1 1 1 1 1 1 1 1 1 1 0 0 1 1 1]\n [1 1 1 1 1 1 1 1 1 1 1 0 0 1 1 1]]'
p86
I1
tp87
I0
s(S'[[1 1 1 1 1 1 1 1 1 1 1 1 1 1 1 1]\n [1 1 1 1 1 1 1 1 1 1 1 1 1 1 1 1]\n [1 1 1 1 1 1 1 1 1 1 1 1 1 1 1 1]\n [0 0 3 3 0 0 0 0 0 0 0 0 0 0 0 0]\n [0 0 0 0 0 0 0 0 0 0 0 0 0 0 0 0]\n [1 1 1 0 0 0 0 0 0 0 0 0 0 0 0 0]\n [1 1 1 1 0 0 0 0 0 0 0 0 0 0 0 0]\n [1 1 1 1 1 0 0 0 0 0 0 0 0 0 0 0]\n [1 1 1 1 1 1 1 1 1 1 1 1 1 0 0 1]\n [1 1 1 1 1 1 1 1 1 1 1 1 1 0 0 1]\n [1 1 1 1 1 1 1 1 1 1 1 1 1 0 0 1]\n [1 1 1 1 1 1 1 1 1 1 1 1 1 0 0 1]\n [1 1 1 1 1 1 1 1 1 1 1 1 1 0 0 1]]'
p88
I7
tp89
F0.0
s(S'[[1 1 1 1 1 1 1 1 1 1 1 1 1 1 1 1]\n [1 1 1 1 1 1 1 1 1 1 1 1 1 1 1 1]\n [1 1 1 1 1 1 1 1 1 1 1 1 1 1 1 1]\n [0 0 0 0 0 0 0 0 0 0 0 0 0 0 0 0]\n [0 0 0 0 0 0 0 0 0 0 0 0 0 0 0 0]\n [0 0 0 0 0 0 0 0 0 0 0 0 0 0 0 0]\n [0 0 0 0 0 3 3 0 0 0 0 0 0 0 0 0]\n [1 0 0 0 0 0 0 0 0 0 0 0 0 0 0 0]\n [1 1 1 1 1 1 1 1 1 0 0 1 1 1 1 1]\n [1 1 1 1 1 1 1 1 1 0 0 1 1 1 1 1]\n [1 1 1 1 1 1 1 1 1 0 0 1 1 1 1 1]\n [1 1 1 1 1 1 1 1 1 0 0 1 1 1 1 1]\n [1 1 1 1 1 1 1 1 1 0 0 1 1 1 1 1]]'
p90
I5
tp91
I0
s(g32
I4
tp92
F0.0
s(S'[[1 1 1 1 1 1 1 1 1 1 1 1 1 1 1 1]\n [1 1 1 1 1 1 1 1 1 1 1 1 1 1 1 1]\n [1 1 1 1 1 1 1 1 1 1 1 1 1 1 1 1]\n [0 0 0 0 0 0 0 0 0 0 0 0 0 0 0 0]\n [0 0 0 0 0 0 0 0 0 0 0 0 0 0 0 0]\n [0 0 0 0 0 0 3 0 0 0 0 0 0 0 0 0]\n [0 0 0 0 0 0 3 0 0 0 0 0 0 0 0 0]\n [1 0 0 0 0 0 0 0 0 0 0 0 0 0 0 0]\n [1 1 1 1 1 1 1 1 1 0 0 1 1 1 1 1]\n [1 1 1 1 1 1 1 1 1 0 0 1 1 1 1 1]\n [1 1 1 1 1 1 1 1 1 0 0 1 1 1 1 1]\n [1 1 1 1 1 1 1 1 1 0 0 1 1 1 1 1]\n [1 1 1 1 1 1 1 1 1 0 0 1 1 1 1 1]]'
p93
I13
tp94
I0
s(g36
I13
tp95
I0
s(S'[[1 1 1 1 1 1 1 1 1 1 1 1 1 1 1 1]\n [1 1 1 1 1 1 1 1 1 1 1 1 1 1 1 1]\n [1 1 1 1 1 1 1 1 1 1 1 1 1 1 1 1]\n [0 0 0 0 0 0 0 0 0 0 0 0 0 0 0 0]\n [0 0 0 0 0 0 0 0 0 0 0 0 0 0 0 0]\n [1 1 0 0 0 0 0 0 0 0 0 0 0 0 0 0]\n [1 1 1 0 0 3 0 0 0 0 0 0 0 0 0 0]\n [1 1 1 1 0 3 0 0 0 0 0 0 0 0 0 0]\n [1 1 1 1 1 1 1 1 1 1 1 1 0 0 1 1]\n [1 1 1 1 1 1 1 1 1 1 1 1 0 0 1 1]\n [1 1 1 1 1 1 1 1 1 1 1 1 0 0 1 1]\n [1 1 1 1 1 1 1 1 1 1 1 1 0 0 1 1]\n [1 1 1 1 1 1 1 1 1 1 1 1 0 0 1 1]]'
p96
I11
tp97
I0
s(g26
I10
tp98
F0.5036999999999999
s(g47
I7
tp99
I0
s(g49
I2
tp100
I0
s(g18
I7
tp101
I0
s(g52
I4
tp102
I0
s(S'[[1 1 1 1 1 1 1 1 1 1 1 1 1 1 1 1]\n [1 1 1 1 1 1 1 1 1 1 1 1 1 1 1 1]\n [1 1 1 1 1 1 1 1 1 1 1 1 1 1 1 1]\n [0 0 0 0 0 0 0 0 0 0 0 0 0 0 0 0]\n [0 0 0 0 0 0 0 0 0 0 0 0 0 0 0 0]\n [0 0 0 0 0 3 3 0 0 0 0 0 0 0 0 0]\n [0 0 0 0 0 0 0 0 0 0 0 0 0 0 0 0]\n [1 0 0 0 0 0 0 0 0 0 0 0 0 0 0 0]\n [1 1 1 1 1 1 1 1 1 0 0 1 1 1 1 1]\n [1 1 1 1 1 1 1 1 1 0 0 1 1 1 1 1]\n [1 1 1 1 1 1 1 1 1 0 0 1 1 1 1 1]\n [1 1 1 1 1 1 1 1 1 0 0 1 1 1 1 1]\n [1 1 1 1 1 1 1 1 1 0 0 1 1 1 1 1]]'
p103
I6
tp104
I0
s(g61
I2
tp105
I0
s(g68
I1
tp106
I0
s(S'[[1 1 1 1 1 1 1 1 1 1 1 1 1 1 1 1]\n [1 1 1 1 1 1 1 1 1 1 1 1 1 1 1 1]\n [1 1 1 1 1 1 1 1 1 1 1 1 1 1 1 1]\n [0 0 0 0 0 0 0 0 0 0 0 0 0 0 0 0]\n [0 0 3 3 0 0 0 0 0 0 0 0 0 0 0 0]\n [1 1 1 0 0 0 0 0 0 0 0 0 0 0 0 0]\n [1 1 1 1 0 0 0 0 0 0 0 0 0 0 0 0]\n [1 1 1 1 1 0 0 0 0 0 0 0 0 0 0 0]\n [1 1 1 1 1 1 1 1 1 1 1 1 1 0 0 1]\n [1 1 1 1 1 1 1 1 1 1 1 1 1 0 0 1]\n [1 1 1 1 1 1 1 1 1 1 1 1 1 0 0 1]\n [1 1 1 1 1 1 1 1 1 1 1 1 1 0 0 1]\n [1 1 1 1 1 1 1 1 1 1 1 1 1 0 0 1]]'
p107
I11
tp108
I0
s(S'[[1 1 1 1 1 1 1 1 1 1 1 1 1 1 1 1]\n [1 1 1 1 1 1 1 1 1 1 1 1 1 1 1 1]\n [1 1 1 1 1 1 1 1 1 1 1 1 1 1 1 1]\n [0 0 0 0 0 0 0 0 0 0 0 0 0 0 0 0]\n [0 0 0 0 0 0 0 0 0 0 0 0 0 0 0 0]\n [0 0 0 0 0 0 0 0 0 0 0 0 0 0 0 0]\n [0 0 0 0 0 3 0 0 0 0 0 0 0 0 0 0]\n [0 0 0 0 0 0 0 0 0 0 0 0 0 0 0 0]\n [1 1 1 1 1 1 0 0 1 1 1 1 1 1 1 1]\n [1 1 1 1 1 1 0 0 1 1 1 1 1 1 1 1]\n [1 1 1 1 1 1 0 0 1 1 1 1 1 1 1 1]\n [1 1 1 1 1 1 0 0 1 1 1 1 1 1 1 1]\n [1 1 1 1 1 1 0 0 1 1 1 1 1 1 1 1]]'
p109
I12
tp110
I0
s(S'[[1 1 1 1 1 1 1 1 1 1 1 1 1 1 1 1]\n [1 1 1 1 1 1 1 1 1 1 1 1 1 1 1 1]\n [1 1 1 1 1 1 1 1 1 1 1 1 1 1 1 1]\n [0 0 0 0 0 0 0 0 0 0 0 0 0 0 0 0]\n [0 0 0 0 0 0 0 0 0 0 0 0 0 0 0 0]\n [1 1 1 0 0 0 0 0 0 0 0 0 0 0 0 0]\n [1 1 1 1 3 3 0 0 0 0 0 0 0 0 0 0]\n [1 1 1 1 1 0 0 0 0 0 0 0 0 0 0 0]\n [1 1 1 1 1 1 1 1 1 1 1 1 1 0 0 1]\n [1 1 1 1 1 1 1 1 1 1 1 1 1 0 0 1]\n [1 1 1 1 1 1 1 1 1 1 1 1 1 0 0 1]\n [1 1 1 1 1 1 1 1 1 1 1 1 1 0 0 1]\n [1 1 1 1 1 1 1 1 1 1 1 1 1 0 0 1]]'
p111
I7
tp112
I0
s(g12
I2
tp113
I0
s(g96
I6
tp114
I0
s(S'[[1 1 1 1 1 1 1 1 1 1 1 1 1 1 1 1]\n [1 1 1 1 1 1 1 1 1 1 1 1 1 1 1 1]\n [1 1 1 1 1 1 1 1 1 1 1 1 1 1 1 1]\n [0 0 0 0 0 0 0 0 0 0 0 0 0 0 0 0]\n [0 0 3 0 0 0 0 0 0 0 0 0 0 0 0 0]\n [1 1 1 0 0 0 0 0 0 0 0 0 0 0 0 0]\n [1 1 1 1 0 0 0 0 0 0 0 0 0 0 0 0]\n [1 1 1 1 1 0 0 0 0 0 0 0 0 0 0 0]\n [1 1 1 1 1 1 1 1 1 1 1 1 1 0 0 1]\n [1 1 1 1 1 1 1 1 1 1 1 1 1 0 0 1]\n [1 1 1 1 1 1 1 1 1 1 1 1 1 0 0 1]\n [1 1 1 1 1 1 1 1 1 1 1 1 1 0 0 1]\n [1 1 1 1 1 1 1 1 1 1 1 1 1 0 0 1]]'
p115
I5
tp116
I0
s(g75
I8
tp117
I0
s(g10
I11
tp118
I0
s(S'[[1 1 1 1 1 1 1 1 1 1 1 1 1 1 1 1]\n [1 1 1 1 1 1 1 1 1 1 1 1 1 1 1 1]\n [1 1 1 1 1 1 1 1 1 1 1 1 1 1 1 1]\n [0 0 0 0 0 0 0 0 0 0 0 0 0 0 0 1]\n [0 0 0 0 0 0 0 0 0 0 0 0 0 0 0 1]\n [0 0 0 0 0 0 0 0 0 0 0 0 0 0 0 0]\n [0 0 0 0 0 0 0 0 0 0 0 0 0 0 0 0]\n [0 0 0 0 0 0 0 0 0 0 0 0 0 0 0 0]\n [1 1 1 1 1 3 0 1 1 1 1 1 1 1 1 1]\n [1 1 1 1 1 0 0 1 1 1 1 1 1 1 1 1]\n [1 1 1 1 1 0 0 1 1 1 1 1 1 1 1 1]\n [1 1 1 1 1 0 0 1 1 1 1 1 1 1 1 1]\n [1 1 1 1 1 0 0 1 1 1 1 1 1 1 1 1]]'
p119
I8
tp120
I0
s(S'[[1 1 1 1 1 1 1 1 1 1 1 1 1 1 1 1]\n [1 1 1 1 1 1 1 1 1 1 1 1 1 1 1 1]\n [1 1 1 1 1 1 1 1 1 1 1 1 1 1 1 1]\n [0 0 0 0 0 0 0 0 0 0 0 0 0 0 0 0]\n [0 0 0 0 0 3 0 0 0 0 0 0 0 0 0 0]\n [1 1 1 0 0 0 0 0 0 0 0 0 0 0 0 0]\n [1 1 1 1 0 0 0 0 0 0 0 0 0 0 0 0]\n [1 1 1 1 1 0 0 0 0 0 0 0 0 0 0 0]\n [1 1 1 1 1 1 1 1 1 1 1 1 1 0 0 1]\n [1 1 1 1 1 1 1 1 1 1 1 1 1 0 0 1]\n [1 1 1 1 1 1 1 1 1 1 1 1 1 0 0 1]\n [1 1 1 1 1 1 1 1 1 1 1 1 1 0 0 1]\n [1 1 1 1 1 1 1 1 1 1 1 1 1 0 0 1]]'
p121
I0
tp122
I0
s(g80
I10
tp123
I0
s(g66
I13
tp124
F2.032578
s(g16
I1
tp125
I0
s(g18
I2
tp126
I0
s(g90
I3
tp127
I0
s(g84
I3
tp128
I0
s(g86
I8
tp129
I0
s(g24
I11
tp130
I0
s(S'[[1 1 1 1 1 1 1 1 1 1 1 1 1 1 1 1]\n [1 1 1 1 1 1 1 1 1 1 1 1 1 1 1 1]\n [1 1 1 1 1 1 1 1 1 1 1 1 1 1 1 1]\n [0 0 0 0 0 0 0 0 0 0 0 0 0 0 0 0]\n [0 0 0 0 0 0 0 0 0 0 0 0 0 0 0 0]\n [1 1 1 3 0 0 0 0 0 0 0 0 0 0 0 0]\n [1 1 1 1 0 0 0 0 0 0 0 0 0 0 0 0]\n [1 1 1 1 1 0 0 0 0 0 0 0 0 0 0 0]\n [1 1 1 1 1 1 1 1 1 1 1 1 1 0 0 1]\n [1 1 1 1 1 1 1 1 1 1 1 1 1 0 0 1]\n [1 1 1 1 1 1 1 1 1 1 1 1 1 0 0 1]\n [1 1 1 1 1 1 1 1 1 1 1 1 1 0 0 1]\n [1 1 1 1 1 1 1 1 1 1 1 1 1 0 0 1]]'
p131
I4
tp132
I0
s(S'[[1 1 1 1 1 1 1 1 1 1 1 1 1 1 1 1]\n [1 1 1 1 1 1 1 1 1 1 1 1 1 1 1 1]\n [1 1 1 1 1 1 1 1 1 1 1 1 1 1 1 1]\n [0 0 0 3 0 0 0 0 0 0 0 0 0 0 0 0]\n [0 0 0 0 0 0 0 0 0 0 0 0 0 0 0 0]\n [1 1 1 0 0 0 0 0 0 0 0 0 0 0 0 0]\n [1 1 1 1 0 0 0 0 0 0 0 0 0 0 0 0]\n [1 1 1 1 1 0 0 0 0 0 0 0 0 0 0 0]\n [1 1 1 1 1 1 1 1 1 1 1 1 1 0 0 1]\n [1 1 1 1 1 1 1 1 1 1 1 1 1 0 0 1]\n [1 1 1 1 1 1 1 1 1 1 1 1 1 0 0 1]\n [1 1 1 1 1 1 1 1 1 1 1 1 1 0 0 1]\n [1 1 1 1 1 1 1 1 1 1 1 1 1 0 0 1]]'
p133
I6
tp134
F0.0
s(g133
I7
tp135
F0.0
s(g93
I4
tp136
I0
s(g36
I10
tp137
I0
s(g38
I3
tp138
I0
s(g36
I11
tp139
I0
s(S'[[1 1 1 1 1 1 1 1 1 1 1 1 1 1 1 1]\n [1 1 1 1 1 1 1 1 1 1 1 1 1 1 1 1]\n [1 1 1 1 1 1 1 1 1 1 1 1 1 1 1 1]\n [0 0 0 3 0 0 0 0 0 0 0 0 0 0 0 0]\n [0 0 0 3 0 0 0 0 0 0 0 0 0 0 0 0]\n [1 1 1 0 0 0 0 0 0 0 0 0 0 0 0 0]\n [1 1 1 1 0 0 0 0 0 0 0 0 0 0 0 0]\n [1 1 1 1 1 0 0 0 0 0 0 0 0 0 0 0]\n [1 1 1 1 1 1 1 1 1 1 1 1 1 0 0 1]\n [1 1 1 1 1 1 1 1 1 1 1 1 1 0 0 1]\n [1 1 1 1 1 1 1 1 1 1 1 1 1 0 0 1]\n [1 1 1 1 1 1 1 1 1 1 1 1 1 0 0 1]\n [1 1 1 1 1 1 1 1 1 1 1 1 1 0 0 1]]'
p140
I1
tp141
I0
s(S'[[1 1 1 1 1 1 1 1 1 1 1 1 1 1 1 1]\n [1 1 1 1 1 1 1 1 1 1 1 1 1 1 1 1]\n [1 1 1 1 1 1 1 1 1 1 1 1 1 1 1 1]\n [0 0 0 0 0 0 0 0 0 0 0 0 0 0 0 0]\n [0 0 0 0 0 0 0 0 0 0 0 0 0 0 0 0]\n [1 1 1 0 0 0 0 0 0 0 0 0 0 0 0 0]\n [1 1 1 1 0 3 0 0 0 0 0 0 0 0 0 0]\n [1 1 1 1 1 0 0 0 0 0 0 0 0 0 0 0]\n [1 1 1 1 1 1 1 1 1 1 1 1 1 0 0 1]\n [1 1 1 1 1 1 1 1 1 1 1 1 1 0 0 1]\n [1 1 1 1 1 1 1 1 1 1 1 1 1 0 0 1]\n [1 1 1 1 1 1 1 1 1 1 1 1 1 0 0 1]\n [1 1 1 1 1 1 1 1 1 1 1 1 1 0 0 1]]'
p142
I4
tp143
I0
s(S'[[1 1 1 1 1 1 1 1 1 1 1 1 1 1 1 1]\n [1 1 1 1 1 1 1 1 1 1 1 1 1 1 1 1]\n [1 1 1 1 1 1 1 1 1 1 1 1 1 1 1 1]\n [0 0 0 0 0 0 0 0 0 0 0 0 0 0 0 0]\n [0 0 0 0 0 3 3 0 0 0 0 0 0 0 0 0]\n [1 0 0 0 0 0 0 0 0 0 0 0 0 0 0 0]\n [1 1 0 0 0 0 0 0 0 0 0 0 0 0 0 0]\n [1 1 1 0 0 0 0 0 0 0 0 0 0 0 0 0]\n [1 1 1 1 1 1 1 1 1 1 1 0 0 1 1 1]\n [1 1 1 1 1 1 1 1 1 1 1 0 0 1 1 1]\n [1 1 1 1 1 1 1 1 1 1 1 0 0 1 1 1]\n [1 1 1 1 1 1 1 1 1 1 1 0 0 1 1 1]\n [1 1 1 1 1 1 1 1 1 1 1 0 0 1 1 1]]'
p144
I0
tp145
I0
s(S'[[1 1 1 1 1 1 1 1 1 1 1 1 1 1 1 1]\n [1 1 1 1 1 1 1 1 1 1 1 1 1 1 1 1]\n [1 1 1 1 1 1 1 1 1 1 1 1 1 1 1 1]\n [0 0 0 0 0 0 0 0 0 0 0 0 0 0 0 0]\n [0 0 0 0 0 0 0 0 0 0 0 0 0 0 0 0]\n [1 1 0 0 0 3 0 0 0 0 0 0 0 0 0 0]\n [1 1 1 0 0 0 0 0 0 0 0 0 0 0 0 0]\n [1 1 1 1 0 0 0 0 0 0 0 0 0 0 0 0]\n [1 1 1 1 1 1 1 1 1 1 1 1 0 0 1 1]\n [1 1 1 1 1 1 1 1 1 1 1 1 0 0 1 1]\n [1 1 1 1 1 1 1 1 1 1 1 1 0 0 1 1]\n [1 1 1 1 1 1 1 1 1 1 1 1 0 0 1 1]\n [1 1 1 1 1 1 1 1 1 1 1 1 0 0 1 1]]'
p146
I13
tp147
I0
s(g52
I13
tp148
F0.08927858132011149
s(g40
I4
tp149
I0
s(g38
I2
tp150
I0
s(S'[[1 1 1 1 1 1 1 1 1 1 1 1 1 1 1 1]\n [1 1 1 1 1 1 1 1 1 1 1 1 1 1 1 1]\n [1 1 1 1 1 1 1 1 1 1 1 1 1 1 1 1]\n [0 0 0 0 0 0 0 0 0 0 0 0 0 0 0 1]\n [0 0 0 0 0 0 0 0 0 0 0 0 0 0 0 1]\n [0 0 0 0 0 0 0 0 0 0 0 0 0 0 0 0]\n [0 0 0 0 0 0 0 0 0 0 0 0 0 0 0 0]\n [0 0 0 0 0 0 0 0 0 0 0 0 0 0 0 0]\n [1 1 1 1 1 0 0 1 1 1 1 1 1 1 1 1]\n [1 1 1 1 1 0 0 1 1 1 1 1 1 1 1 1]\n [1 1 1 1 1 0 0 1 1 1 1 1 1 1 1 1]\n [1 1 1 1 1 0 0 1 1 1 1 1 1 1 1 1]\n [1 1 1 1 1 3 0 1 1 1 1 1 1 1 1 1]]'
p151
I9
tp152
I0
s(g131
I1
tp153
I0
s(g49
I12
tp154
F0.0674163
s(g26
I8
tp155
F-0.3
s(g107
I0
tp156
F0.0
s(g109
I11
tp157
I0
s(S'[[1 1 1 1 1 1 1 1 1 1 1 1 1 1 1 1]\n [1 1 1 1 1 1 1 1 1 1 1 1 1 1 1 1]\n [1 1 1 1 1 1 1 1 1 1 1 1 1 1 1 1]\n [0 0 0 0 0 0 0 0 0 0 0 0 0 0 0 0]\n [0 0 0 0 0 0 0 0 0 0 0 0 0 0 0 0]\n [1 0 0 0 0 0 3 0 0 0 0 0 0 0 0 0]\n [1 1 0 0 0 0 0 0 0 0 0 0 0 0 0 0]\n [1 1 1 0 0 0 0 0 0 0 0 0 0 0 0 0]\n [1 1 1 1 1 1 1 1 1 1 1 0 0 1 1 1]\n [1 1 1 1 1 1 1 1 1 1 1 0 0 1 1 1]\n [1 1 1 1 1 1 1 1 1 1 1 0 0 1 1 1]\n [1 1 1 1 1 1 1 1 1 1 1 0 0 1 1 1]\n [1 1 1 1 1 1 1 1 1 1 1 0 0 1 1 1]]'
p158
I1
tp159
I0
s(g142
I8
tp160
F1.283289
s(g14
I4
tp161
I0
s(S'[[1 1 1 1 1 1 1 1 1 1 1 1 1 1 1 1]\n [1 1 1 1 1 1 1 1 1 1 1 1 1 1 1 0]\n [1 1 1 1 1 1 1 1 1 1 1 1 1 1 1 0]\n [0 0 0 0 0 0 0 0 0 0 0 0 0 0 1 0]\n [0 0 0 0 0 0 0 0 0 0 0 0 0 0 1 0]\n [0 0 0 0 0 0 0 0 0 0 0 0 0 0 0 0]\n [0 0 0 0 0 0 0 0 0 0 0 0 0 0 0 0]\n [0 0 0 0 0 0 0 0 0 0 0 0 0 0 0 0]\n [1 1 1 1 0 0 1 1 1 1 1 1 1 1 1 1]\n [1 1 1 1 0 0 1 1 1 1 1 1 1 1 1 1]\n [1 1 1 1 0 0 1 1 1 1 1 1 1 1 1 1]\n [1 1 1 1 0 0 1 1 1 1 1 1 1 1 1 1]\n [1 1 1 1 0 0 1 1 1 1 1 1 1 1 1 1]]'
p162
I0
tp163
F-28.5529281
s(g8
I1
tp164
I0
s(g10
I2
tp165
I0
s(g119
I3
tp166
I0
s(g64
I9
tp167
I0
s(g16
I8
tp168
I0
s(g84
I10
tp169
I0
s(g24
I2
tp170
I0
s(g28
I13
tp171
I0
s(g82
I10
tp172
I0
s(g140
I10
tp173
I0
s(g32
I8
tp174
I0
s(g142
I3
tp175
I0
s(g144
I9
tp176
I0
s(g96
I9
tp177
I0
s(g146
I2
tp178
I0
s(g40
I13
tp179
F0.0
s(g151
I0
tp180
I0
s(g26
I6
tp181
F0.0
s(g18
I11
tp182
F0.0
s(g54
I2
tp183
F0.0
s(g56
I12
tp184
I0
s(g58
I7
tp185
I0
s(g109
I2
tp186
I0
s(g96
I2
tp187
I0
s(g4
I0
tp188
I0
s(g68
I13
tp189
I0
s(g6
I6
tp190
I0
s(g8
I8
tp191
I0
s(g10
I5
tp192
I0
s(g96
I4
tp193
I0
s(g14
I0
tp194
I0
s(g88
I3
tp195
I0
s(g75
I4
tp196
I0
s(g22
I6
tp197
I0
s(g24
I5
tp198
I0
s(g28
I4
tp199
I0
s(g82
I13
tp200
I0
s(S'[[1 1 1 1 1 1 1 1 1 1 1 1 1 1 1 1]\n [1 1 1 1 1 1 1 1 1 1 1 1 1 1 1 1]\n [1 1 1 1 1 1 1 1 1 1 1 1 1 1 1 1]\n [0 0 0 0 0 0 0 0 0 0 0 0 0 0 0 1]\n [0 0 0 0 0 0 0 0 0 0 0 0 0 0 0 1]\n [0 0 0 0 0 0 0 0 0 0 0 0 0 0 0 0]\n [0 0 0 0 0 0 0 0 0 0 0 0 0 0 0 0]\n [0 0 0 0 0 0 0 0 0 0 0 0 0 0 0 0]\n [1 1 1 1 1 0 0 1 1 1 1 1 1 1 1 1]\n [1 1 1 1 1 0 0 1 1 1 1 1 1 1 1 1]\n [1 1 1 1 1 0 0 1 1 1 1 1 1 1 1 1]\n [1 1 1 1 1 3 0 1 1 1 1 1 1 1 1 1]\n [1 1 1 1 1 0 0 1 1 1 1 1 1 1 1 1]]'
p201
I10
tp202
I0
s(g90
I1
tp203
I0
s(g86
I4
tp204
I0
s(g88
I8
tp205
I0
s(g90
I8
tp206
I0
s(g32
I3
tp207
F0.0
s(g142
I10
tp208
I0
s(g36
I6
tp209
I0
s(g14
I9
tp210
I0
s(g44
I1
tp211
I0
s(g36
I9
tp212
I0
s(S'[[1 1 1 1 1 1 1 1 1 1 1 1 1 1 1 1]\n [1 1 1 1 1 1 1 1 1 1 1 1 1 1 1 1]\n [1 1 1 1 1 1 1 1 1 1 1 1 1 1 1 1]\n [0 0 0 0 0 0 0 0 0 0 0 0 0 0 0 0]\n [0 0 0 0 0 0 0 0 0 0 0 0 0 0 0 0]\n [0 0 0 0 0 3 0 0 0 0 0 0 0 0 0 0]\n [0 0 0 0 0 3 0 0 0 0 0 0 0 0 0 0]\n [0 0 0 0 0 0 0 0 0 0 0 0 0 0 0 0]\n [1 1 1 1 1 1 0 0 1 1 1 1 1 1 1 1]\n [1 1 1 1 1 1 0 0 1 1 1 1 1 1 1 1]\n [1 1 1 1 1 1 0 0 1 1 1 1 1 1 1 1]\n [1 1 1 1 1 1 0 0 1 1 1 1 1 1 1 1]\n [1 1 1 1 1 1 0 0 1 1 1 1 1 1 1 1]]'
p213
I13
tp214
I0
s(g47
I10
tp215
I0
s(g49
I5
tp216
I0
s(g88
I12
tp217
I0
s(g201
I4
tp218
I0
s(g52
I1
tp219
I0
s(g54
I5
tp220
I0
s(g56
I5
tp221
I0
s(g103
I9
tp222
I0
s(g61
I5
tp223
I0
s(g90
I12
tp224
F0.0
s(g66
I4
tp225
I0
s(g68
I10
tp226
I0
s(g107
I12
tp227
F0.0
s(g111
I8
tp228
I0
s(g12
I7
tp229
F0.20533868770314598
s(g115
I8
tp230
I0
s(g64
I7
tp231
I0
s(g75
I13
tp232
I0
s(g20
I6
tp233
I0
s(g64
I3
tp234
I0
s(g28
I3
tp235
I0
s(g80
I7
tp236
F0.11527722957134104
s(g82
I4
tp237
I0
s(g84
I6
tp238
I0
s(g86
I3
tp239
I0
s(g88
I1
tp240
I0
s(g90
I7
tp241
I0
s(g133
I2
tp242
F-0.017730000000000024
s(g93
I11
tp243
I0
s(g162
I11
tp244
I0
s(S'[[1 1 1 1 1 1 1 1 1 1 1 1 1 1 1 1]\n [1 1 1 1 1 1 1 1 1 1 1 1 1 1 1 1]\n [1 1 1 1 1 1 1 1 1 1 1 1 1 1 1 1]\n [0 0 0 0 0 0 0 0 0 0 0 0 0 0 0 0]\n [0 0 0 0 0 0 0 0 0 0 0 0 0 0 0 0]\n [0 0 0 0 0 0 0 0 0 0 0 0 0 0 0 0]\n [0 0 0 0 0 0 0 0 0 0 0 0 0 0 0 0]\n [0 0 0 0 0 3 0 0 0 0 0 0 0 0 0 0]\n [1 1 1 1 1 1 0 0 1 1 1 1 1 1 1 1]\n [1 1 1 1 1 1 0 0 1 1 1 1 1 1 1 1]\n [1 1 1 1 1 1 0 0 1 1 1 1 1 1 1 1]\n [1 1 1 1 1 1 0 0 1 1 1 1 1 1 1 1]\n [1 1 1 1 1 1 0 0 1 1 1 1 1 1 1 1]]'
p245
I6
tp246
I0
s(g140
I6
tp247
I0
s(g40
I10
tp248
I0
s(g47
I5
tp249
I0
s(g144
I5
tp250
I0
s(g18
I5
tp251
I0
s(g52
I10
tp252
I0
s(g54
I12
tp253
I0
s(g151
I12
tp254
I0
s(g103
I0
tp255
I0
s(g131
I12
tp256
F-0.10489968067573206
s(g68
I3
tp257
I0
s(g10
I12
tp258
I0
s(g107
I5
tp259
I0
s(g111
I1
tp260
I0
s(g158
I12
tp261
I0
s(g115
I7
tp262
I0
s(g75
I10
tp263
I0
s(g10
I9
tp264
I0
s(g119
I6
tp265
I0
s(g121
I2
tp266
I0
s(g80
I8
tp267
I0
s(g30
I7
tp268
F1.1099999999999999
s(g16
I7
tp269
F0.010528594643209389
s(g84
I13
tp270
I0
s(g86
I10
tp271
I0
s(g24
I9
tp272
I0
s(g142
I7
tp273
I0
s(g133
I5
tp274
I0
s(g93
I2
tp275
I0
s(g38
I1
tp276
I0
s(g10
I13
tp277
F0.273699
s(S'[[1 1 1 1 1 1 1 1 1 1 1 1 1 1 1 1]\n [1 1 1 1 1 1 1 1 1 1 1 1 1 1 1 1]\n [1 1 1 1 1 1 1 1 1 1 1 1 1 1 1 1]\n [0 0 0 0 0 0 0 0 0 0 0 0 0 0 0 0]\n [0 0 0 0 0 0 0 0 0 0 0 0 0 0 0 0]\n [0 0 0 0 0 0 0 0 0 0 0 0 0 0 0 0]\n [0 0 0 0 0 3 0 0 0 0 0 0 0 0 0 0]\n [0 0 0 0 0 0 0 0 0 0 0 0 0 0 0 0]\n [1 1 1 1 1 1 1 0 0 1 1 1 1 1 1 1]\n [1 1 1 1 1 1 1 0 0 1 1 1 1 1 1 1]\n [1 1 1 1 1 1 1 0 0 1 1 1 1 1 1 1]\n [1 1 1 1 1 1 1 0 0 1 1 1 1 1 1 1]\n [1 1 1 1 1 1 1 0 0 1 1 1 1 1 1 1]]'
p278
I7
tp279
I0
s(S'[[1 1 1 1 1 1 1 1 1 1 1 1 1 1 1 1]\n [1 1 1 1 1 1 1 1 1 1 1 1 1 1 1 1]\n [1 1 1 1 1 1 1 1 1 1 1 1 1 1 1 1]\n [0 0 0 0 0 0 0 0 0 0 0 0 0 0 0 0]\n [0 0 0 0 0 0 0 0 0 0 0 0 0 0 0 0]\n [0 0 0 0 0 3 0 0 0 0 0 0 0 0 0 0]\n [0 0 0 0 0 3 0 0 0 0 0 0 0 0 0 0]\n [0 0 0 0 0 0 0 0 0 0 0 0 0 0 0 0]\n [1 1 1 1 1 1 1 1 0 0 1 1 1 1 1 1]\n [1 1 1 1 1 1 1 1 0 0 1 1 1 1 1 1]\n [1 1 1 1 1 1 1 1 0 0 1 1 1 1 1 1]\n [1 1 1 1 1 1 1 1 0 0 1 1 1 1 1 1]\n [1 1 1 1 1 1 1 1 0 0 1 1 1 1 1 1]]'
p280
I10
tp281
I0
s(g36
I7
tp282
I0
s(g142
I6
tp283
I0
s(g144
I2
tp284
F0.6
s(g64
I5
tp285
I0
s(g40
I2
tp286
I0
s(g151
I7
tp287
I0
s(g131
I7
tp288
I0
s(g56
I9
tp289
I0
s(g58
I8
tp290
I0
s(g107
I2
tp291
I0
s(g109
I5
tp292
I0
s(g158
I7
tp293
I0
s(g96
I5
tp294
F0.8999999999999999
s(g4
I13
tp295
I0
s(g6
I3
tp296
I0
s(g8
I7
tp297
I0
s(g280
I13
tp298
I0
s(g119
I1
tp299
I0
s(g142
I12
tp300
F0.61995
s(g121
I9
tp301
I0
s(g14
I5
tp302
I0
s(g20
I10
tp303
F1.2252988394760753
s(g22
I9
tp304
I0
s(g24
I0
tp305
I0
s(g133
I12
tp306
F-0.3
s(g82
I8
tp307
F0.7947
s(g88
I13
tp308
I0
s(g140
I8
tp309
I0
s(g34
I13
tp310
F-0.219
s(g144
I11
tp311
I0
s(g146
I4
tp312
I0
s(g40
I11
tp313
I0
s(g44
I12
tp314
I0
s(g26
I0
tp315
I0
s(g40
I12
tp316
I0
s(S'[[1 1 1 1 1 1 1 1 1 1 1 1 1 1 1 1]\n [1 1 1 1 1 1 1 1 1 1 1 1 1 1 1 1]\n [1 1 1 1 1 1 1 1 1 1 1 1 1 1 1 1]\n [0 0 0 0 0 0 0 0 0 0 0 0 0 0 0 0]\n [0 0 0 0 0 0 0 0 0 0 0 0 0 0 0 0]\n [0 0 0 0 0 3 0 0 0 0 0 0 0 0 0 0]\n [0 0 0 0 0 0 0 0 0 0 0 0 0 0 0 0]\n [1 0 0 0 0 0 0 0 0 0 0 0 0 0 0 0]\n [1 1 1 1 1 1 1 1 1 0 0 1 1 1 1 1]\n [1 1 1 1 1 1 1 1 1 0 0 1 1 1 1 1]\n [1 1 1 1 1 1 1 1 1 0 0 1 1 1 1 1]\n [1 1 1 1 1 1 1 1 1 0 0 1 1 1 1 1]\n [1 1 1 1 1 1 1 1 1 0 0 1 1 1 1 1]]'
p317
I1
tp318
F0.0
s(g96
I13
tp319
I0
s(g18
I9
tp320
I0
s(g54
I0
tp321
I0
s(g58
I1
tp322
I0
s(g103
I12
tp323
I0
s(g61
I8
tp324
F0.0
s(g96
I12
tp325
I0
s(g4
I6
tp326
I0
s(g201
I3
tp327
I0
s(g6
I4
tp328
I0
s(g111
I13
tp329
I0
s(g12
I8
tp330
I0
s(g64
I0
tp331
I0
s(g75
I6
tp332
I0
s(g28
I12
tp333
I0
s(g44
I10
tp334
I0
s(g20
I13
tp335
F-0.0725259904710576
s(g22
I0
tp336
I0
s(g28
I6
tp337
I0
s(g30
I1
tp338
I0
s(g82
I3
tp339
I0
s(g86
I6
tp340
I0
s(g88
I10
tp341
I0
s(g90
I10
tp342
I0
s(g32
I1
tp343
I0
s(g36
I0
tp344
I0
s(S'[[1 1 1 1 1 1 1 1 1 1 1 1 1 1 1 1]\n [1 1 1 1 1 1 1 1 1 1 1 1 1 1 1 1]\n [1 1 1 1 1 1 1 1 1 1 1 1 1 1 1 1]\n [0 0 0 0 0 0 0 0 0 0 0 0 0 0 0 0]\n [0 0 0 0 0 0 0 0 0 0 0 0 0 0 0 0]\n [0 0 0 0 0 0 0 0 0 0 0 0 0 0 0 0]\n [0 0 0 0 0 0 0 0 0 0 0 0 0 0 0 0]\n [1 0 0 0 0 3 0 0 0 0 0 0 0 0 0 0]\n [1 1 1 1 1 1 1 1 1 0 0 1 1 1 1 1]\n [1 1 1 1 1 1 1 1 1 0 0 1 1 1 1 1]\n [1 1 1 1 1 1 1 1 1 0 0 1 1 1 1 1]\n [1 1 1 1 1 1 1 1 1 0 0 1 1 1 1 1]\n [1 1 1 1 1 1 1 1 1 0 0 1 1 1 1 1]]'
p345
I3
tp346
I0
s(g278
I5
tp347
I0
s(g44
I7
tp348
I0
s(g213
I11
tp349
I0
s(g47
I8
tp350
F0.51
s(g49
I7
tp351
I0
s(g201
I6
tp352
F0.72
s(g52
I7
tp353
I0
s(g54
I11
tp354
I0
s(g56
I7
tp355
I0
s(g278
I8
tp356
I0
s(g162
I9
tp357
I0
s(g103
I11
tp358
I0
s(g131
I11
tp359
I0
s(g61
I7
tp360
F0.7337169383363826
s(g66
I6
tp361
I0
s(g38
I8
tp362
I0
s(g68
I4
tp363
I0
s(g6
I13
tp364
I0
s(g111
I10
tp365
I0
s(g12
I1
tp366
I0
s(g158
I11
tp367
I0
s(g115
I10
tp368
F0.016349005056350258
s(g20
I4
tp369
F-0.2309836456920911
s(g119
I13
tp370
F0.8999999999999999
s(g80
I4
tp371
F0.41527722957134106
s(g34
I2
tp372
F0.0
s(g121
I5
tp373
I0
s(g80
I5
tp374
I0
s(g16
I2
tp375
I0
s(g84
I0
tp376
I0
s(g86
I13
tp377
I0
s(g30
I5
tp378
I0
s(g80
I13
tp379
I0
s(g278
I1
tp380
I0
s(g133
I0
tp381
F0.9129628239306811
s(g93
I9
tp382
I0
s(g162
I13
tp383
I0
s(g42
I0
tp384
I0
s(g140
I4
tp385
I0
s(g47
I3
tp386
I0
s(g144
I7
tp387
I0
s(g146
I8
tp388
I0
s(g52
I8
tp389
I0
s(g40
I7
tp390
I0
s(g151
I10
tp391
I0
s(g103
I2
tp392
I0
s(g38
I4
tp393
F1.6937999999999998
s(g131
I2
tp394
I0
s(g317
I5
tp395
I0
s(g58
I13
tp396
I0
s(g107
I7
tp397
F0.0
s(g109
I8
tp398
I0
s(g111
I3
tp399
I0
s(g158
I2
tp400
I0
s(g115
I1
tp401
F0.013355801731139294
s(g4
I10
tp402
F0.8819999999999999
s(g201
I1
tp403
I0
s(g8
I2
tp404
F0.3
s(g280
I2
tp405
I0
s(g119
I4
tp406
I0
s(g26
I7
tp407
I0
s(g121
I12
tp408
I0
s(g345
I6
tp409
F0.0
s(g16
I5
tp410
F0.01303071557919206
s(g22
I12
tp411
I0
s(g133
I11
tp412
I0
s(g93
I0
tp413
I0
s(g88
I5
tp414
I0
s(g38
I7
tp415
I0
s(g42
I11
tp416
I0
s(g140
I13
tp417
I0
s(g34
I0
tp418
F0.2268530234959625
s(g144
I12
tp419
I0
s(g146
I1
tp420
I0
s(g90
I11
tp421
I0
s(g40
I0
tp422
I0
s(g44
I11
tp423
I0
s(g151
I5
tp424
I0
s(g26
I5
tp425
I0
s(g280
I4
tp426
I0
s(g131
I5
tp427
I0
s(g38
I12
tp428
I0
s(g64
I1
tp429
I0
s(g56
I11
tp430
I0
s(g58
I10
tp431
I0
s(g36
I3
tp432
I0
s(g109
I7
tp433
I0
s(g158
I5
tp434
I0
s(g345
I9
tp435
F0.0
s(g96
I7
tp436
I0
s(g245
I2
tp437
I0
s(g6
I1
tp438
I0
s(g8
I5
tp439
I0
s(g10
I6
tp440
I0
s(g12
I13
tp441
I0
s(g121
I11
tp442
I0
s(g14
I3
tp443
I0
s(g16
I12
tp444
F0.302391976812123
s(g20
I8
tp445
I0
s(g22
I11
tp446
I0
s(g24
I6
tp447
I0
s(g142
I0
tp448
I0
s(g28
I9
tp449
I0
s(g317
I8
tp450
F-0.3
s(g30
I9
tp451
I0
s(g90
I13
tp452
I0
s(g32
I12
tp453
F-0.3
s(g36
I5
tp454
I0
s(g146
I6
tp455
I0
s(g40
I9
tp456
I0
s(g44
I2
tp457
I0
s(g26
I2
tp458
F0.0
s(g49
I10
tp459
F0.8901348693227219
s(g201
I9
tp460
I0
s(g54
I6
tp461
F1.1388368690817
s(g56
I0
tp462
I0
s(g58
I3
tp463
I0
s(S'[[1 1 1 1 1 1 1 1 1 1 1 1 1 1 1 1]\n [1 1 1 1 1 1 1 1 1 1 1 1 1 1 1 1]\n [1 1 1 1 1 1 1 1 1 1 1 1 1 1 1 1]\n [0 0 0 0 0 0 0 0 0 0 0 0 0 0 0 1]\n [0 0 0 0 0 0 0 0 0 0 0 0 0 0 0 1]\n [0 0 0 0 0 0 0 0 0 0 0 0 0 0 0 0]\n [0 0 0 0 0 0 0 0 0 0 0 0 0 0 0 0]\n [0 0 0 0 0 0 0 0 0 0 0 0 0 0 0 0]\n [1 1 1 1 1 0 0 1 1 1 1 1 1 1 1 1]\n [1 1 1 1 1 3 0 1 1 1 1 1 1 1 1 1]\n [1 1 1 1 1 0 0 1 1 1 1 1 1 1 1 1]\n [1 1 1 1 1 0 0 1 1 1 1 1 1 1 1 1]\n [1 1 1 1 1 0 0 1 1 1 1 1 1 1 1 1]]'
p464
I11
tp465
I0
s(g96
I1
tp466
I0
s(g49
I0
tp467
F0.0
s(g66
I3
tp468
I0
s(g4
I4
tp469
I0
s(g68
I9
tp470
I0
s(g6
I10
tp471
I0
s(g8
I12
tp472
I0
s(g12
I10
tp473
I0
s(g115
I13
tp474
F0.0036197214711186643
s(g64
I2
tp475
I0
s(g6
I7
tp476
I0
s(g75
I0
tp477
I0
s(g18
I1
tp478
F1.2126959504046864
s(g20
I3
tp479
F-0.24576113715516945
s(g22
I2
tp480
I0
s(g213
I7
tp481
I0
s(g28
I0
tp482
I0
s(g80
I2
tp483
F0.21505756121999997
s(g82
I1
tp484
I0
s(g213
I8
tp485
I0
s(g86
I0
tp486
I0
s(g88
I4
tp487
I0
s(g90
I4
tp488
I0
s(g32
I7
tp489
F0.0
s(g93
I12
tp490
I0
s(g36
I2
tp491
I0
s(g88
I11
tp492
I0
s(g42
I7
tp493
I0
s(g42
I13
tp494
I0
s(g44
I5
tp495
I0
s(g26
I11
tp496
I0
s(g47
I6
tp497
I0
s(g49
I1
tp498
I0
s(g18
I6
tp499
F-0.3
s(g52
I5
tp500
I0
s(g54
I9
tp501
F0.0
s(g103
I5
tp502
I0
s(g280
I6
tp503
F0.2662594654822031
s(g131
I9
tp504
I0
s(g61
I1
tp505
F0.0
s(g142
I11
tp506
I0
s(g68
I6
tp507
F0.6
s(g36
I1
tp508
F0.3
s(g107
I8
tp509
F-0.09
s(g111
I4
tp510
I0
s(g12
I3
tp511
I0
s(g158
I9
tp512
I0
s(g115
I4
tp513
F-0.15800808398311006
s(g75
I9
tp514
I0
s(g280
I7
tp515
I0
s(g119
I11
tp516
F0.6
s(g121
I7
tp517
F0.83814
s(g317
I11
tp518
I0
s(g16
I0
tp519
F0.11237510066842848
s(g84
I2
tp520
I0
s(g24
I10
tp521
I0
s(g278
I3
tp522
I0
s(g34
I6
tp523
F-0.219
s(g93
I7
tp524
I0
s(g345
I2
tp525
I0
s(g245
I10
tp526
I0
s(g10
I1
tp527
I0
s(g140
I2
tp528
I0
s(g47
I1
tp529
I0
s(g144
I1
tp530
I0
s(g146
I10
tp531
I0
s(g40
I5
tp532
I0
s(g151
I8
tp533
I0
s(g131
I0
tp534
I0
s(g317
I7
tp535
F0.0
s(g107
I1
tp536
I0
s(g109
I10
tp537
F0.6
s(g158
I0
tp538
F0.6
s(g115
I3
tp539
F-0.1109876072196257
s(g49
I6
tp540
I0
s(g4
I8
tp541
I0
s(g4
I3
tp542
I0
s(g8
I0
tp543
F0.05451519430341153
s(g280
I0
tp544
I0
s(g119
I2
tp545
I0
s(g80
I12
tp546
F0.147543837551898
s(g16
I11
tp547
I0
s(g18
I3
tp548
I0
s(g84
I9
tp549
I0
s(g24
I13
tp550
I0
s(g133
I9
tp551
F-0.3
s(g280
I11
tp552
I0
s(g245
I13
tp553
I0
s(g140
I11
tp554
F0.09440953383991946
s(g32
I11
tp555
F0.230180145399249
s(g142
I2
tp556
I0
s(g146
I3
tp557
I0
s(g464
I5
tp558
I0
s(g245
I11
tp559
I0
s(g44
I9
tp560
F3.173846243585605
s(g151
I3
tp561
I0
s(g213
I5
tp562
I0
s(g464
I12
tp563
I0
s(g49
I13
tp564
F0.096309
s(g201
I12
tp565
I0
s(g56
I13
tp566
F1.02
s(g58
I4
tp567
I0
s(g109
I1
tp568
I0
s(g61
I13
tp569
I0
s(g34
I9
tp570
I0
s(g64
I13
tp571
I0
s(g66
I12
tp572
I0
s(g4
I1
tp573
I0
s(g162
I3
tp574
I0
s(g8
I11
tp575
I0
s(g280
I9
tp576
I0
s(g14
I1
tp577
I0
s(g75
I5
tp578
F0.9299999999999999
s(g22
I5
tp579
I0
s(g24
I4
tp580
I0
s(g28
I11
tp581
I0
s(g82
I12
tp582
I0
s(g88
I9
tp583
I0
s(g245
I12
tp584
I0
s(g32
I2
tp585
I0
s(g142
I9
tp586
I0
s(g317
I4
tp587
I0
s(g96
I10
tp588
I0
s(g245
I1
tp589
I0
s(g44
I0
tp590
I0
s(g26
I12
tp591
F0.16857000000000003
s(g47
I13
tp592
I0
s(g49
I4
tp593
F-0.3
s(g345
I10
tp594
I0
s(g42
I2
tp595
I0
s(g18
I13
tp596
I0
s(g52
I2
tp597
I0
s(g54
I4
tp598
I0
s(g56
I2
tp599
I0
s(g103
I8
tp600
I0
s(g61
I4
tp601
F0.0
s(g96
I8
tp602
I0
s(g68
I11
tp603
I0
s(g6
I8
tp604
I0
s(g107
I13
tp605
I0
s(g111
I9
tp606
I0
s(g12
I4
tp607
I0
s(g66
I8
tp608
F0.91914
s(g64
I4
tp609
F1.182
s(g88
I2
tp610
I0
s(g75
I2
tp611
I0
s(g111
I11
tp612
F0.3
s(g20
I1
tp613
I0
s(g28
I2
tp614
I0
s(g80
I0
tp615
F0.37505362121999997
s(g82
I7
tp616
I0
s(g201
I11
tp617
I0
s(g90
I2
tp618
I0
s(g84
I5
tp619
I0
s(g86
I2
tp620
I0
s(g88
I6
tp621
I0
s(g90
I6
tp622
I0
s(g32
I5
tp623
F0.9665417498275634
s(g10
I0
tp624
I0
s(g36
I12
tp625
I0
s(g38
I9
tp626
I0
s(g14
I8
tp627
I0
s(g36
I8
tp628
I0
s(g140
I7
tp629
I0
s(g47
I4
tp630
I0
s(g49
I3
tp631
I0
s(g18
I4
tp632
F0.081
s(g52
I11
tp633
I0
s(g245
I5
tp634
I0
s(g142
I5
tp635
I0
s(g103
I7
tp636
I0
s(g26
I3
tp637
I0
s(g61
I3
tp638
I0
s(g278
I13
tp639
F0.7137
s(g68
I0
tp640
I0
s(g107
I10
tp641
I0
s(g109
I13
tp642
I0
s(g111
I6
tp643
I0
s(g115
I6
tp644
F-0.25201804563257363
s(g464
I9
tp645
I0
s(g64
I11
tp646
I0
s(g75
I11
tp647
I0
s(g162
I1
tp648
I0
s(g10
I8
tp649
I0
s(g119
I9
tp650
I0
s(g121
I1
tp651
I0
s(g80
I9
tp652
I0
s(g16
I6
tp653
F-0.219
s(g84
I12
tp654
F-0.3
s(g86
I9
tp655
I0
s(g24
I8
tp656
I0
s(g133
I4
tp657
F-0.3
s(g93
I5
tp658
I0
s(g245
I8
tp659
I0
s(g121
I4
tp660
I0
s(g140
I0
tp661
I0
s(g464
I2
tp662
I0
s(g34
I5
tp663
I0
s(g144
I3
tp664
I0
s(g66
I5
tp665
I0
s(g146
I12
tp666
F1.9310999999999998
s(g52
I12
tp667
I0
s(g464
I8
tp668
I0
s(g151
I6
tp669
I0
s(g131
I6
tp670
F0.06919095458096627
s(g58
I9
tp671
I0
s(g107
I3
tp672
I0
s(g109
I4
tp673
I0
s(g213
I0
tp674
I0
s(g158
I6
tp675
I0
s(g345
I13
tp676
F0.0
s(g66
I9
tp677
I0
s(g8
I6
tp678
I0
s(g10
I3
tp679
I0
s(g119
I0
tp680
I0
s(g121
I8
tp681
I0
s(g14
I6
tp682
I0
s(g88
I0
tp683
I0
s(g16
I9
tp684
F0.02543205449086062
s(g84
I11
tp685
I0
s(g22
I8
tp686
I0
s(g24
I3
tp687
I0
s(g82
I11
tp688
I0
s(g90
I0
tp689
I0
s(g40
I3
tp690
I0
s(g140
I9
tp691
I0
s(g32
I9
tp692
I0
s(g34
I12
tp693
I0
s(g144
I8
tp694
I0
s(g14
I12
tp695
I0
s(g146
I5
tp696
I0
s(g14
I10
tp697
F0.0
s(g464
I7
tp698
I0
s(g151
I1
tp699
I0
s(g213
I3
tp700
I0
s(g42
I9
tp701
I0
s(g30
I11
tp702
I0
s(g18
I8
tp703
I0
s(g54
I3
tp704
I0
s(g245
I7
tp705
F0.6
s(g58
I6
tp706
I0
s(g109
I3
tp707
I0
s(g96
I3
tp708
I0
s(g4
I7
tp709
I0
s(g68
I12
tp710
I0
s(g6
I5
tp711
I0
s(g8
I9
tp712
F0.022054987762805102
s(g12
I9
tp713
I0
s(g142
I13
tp714
I0
s(g14
I7
tp715
F0.455902401
s(g75
I7
tp716
I0
s(g20
I12
tp717
F0.0
s(g22
I7
tp718
I0
s(g317
I12
tp719
F-0.3
s(g28
I5
tp720
I0
s(g82
I2
tp721
I0
s(g18
I10
tp722
I0
s(g61
I10
tp723
F0.48294592040999995
s(g86
I5
tp724
I0
s(g30
I13
tp725
I0
s(g90
I9
tp726
I0
s(g32
I0
tp727
I0
s(g34
I11
tp728
F0.6836333055479277
s(g162
I5
tp729
I0
s(g44
I6
tp730
I0
s(g109
I9
tp731
F1.8803999999999998
s(g213
I12
tp732
I0
s(g464
I0
tp733
I0
s(g47
I11
tp734
I0
s(g345
I8
tp735
I0
s(g201
I5
tp736
I0
s(g52
I0
tp737
I0
s(g54
I10
tp738
I0
s(g56
I4
tp739
I0
s(g103
I10
tp740
I0
s(g131
I10
tp741
I0
s(g61
I6
tp742
I0
s(g245
I4
tp743
I0
s(g66
I7
tp744
I0
s(g68
I5
tp745
I0
s(g213
I2
tp746
I0
s(g12
I6
tp747
I0
s(g158
I10
tp748
I0
s(g115
I9
tp749
F0.028039023365572267
s(g64
I6
tp750
I0
s(g75
I12
tp751
I0
s(g20
I7
tp752
F0.0
s(g119
I12
tp753
I0
s(g49
I8
tp754
I0
s(g317
I6
tp755
I0
s(g30
I0
tp756
I0
s(g82
I5
tp757
I0
s(g245
I0
tp758
I0
s(g345
I0
tp759
F0.0
s(g84
I7
tp760
I0
s(g86
I12
tp761
I0
s(g30
I6
tp762
I0
s(g278
I0
tp763
F0.0
s(g133
I3
tp764
F0.0
s(g93
I8
tp765
I0
s(g162
I10
tp766
I0
s(g42
I3
tp767
I0
s(g278
I6
tp768
I0
s(g8
I3
tp769
I0
s(g245
I9
tp770
I0
s(g140
I5
tp771
I0
s(g47
I2
tp772
I0
s(g144
I4
tp773
I0
s(g93
I10
tp774
I0
s(g52
I9
tp775
I0
s(g54
I13
tp776
I0
s(g162
I8
tp777
I0
s(g151
I13
tp778
I0
s(g40
I6
tp779
I0
s(g103
I1
tp780
I0
s(g131
I13
tp781
F0.4693649924658466
s(g42
I5
tp782
I0
s(g68
I2
tp783
I0
s(g107
I4
tp784
I0
s(g111
I0
tp785
I0
s(g158
I13
tp786
I0
s(g115
I0
tp787
F-0.2511609574353279
s(g4
I11
tp788
I0
s(g280
I3
tp789
I0
s(g119
I7
tp790
I0
s(g34
I3
tp791
F0.0
s(g121
I3
tp792
I0
s(g345
I7
tp793
F0.0
s(g16
I4
tp794
I0
s(g86
I11
tp795
F0.51
s(g133
I10
tp796
F0.09110220660071543
s(g93
I3
tp797
F0.8999999999999999
s(g38
I6
tp798
I0
s(g34
I7
tp799
F0.0
s(g144
I13
tp800
I0
s(g345
I11
tp801
F0.0
s(g464
I10
tp802
I0
s(g317
I10
tp803
I0
s(g151
I4
tp804
I0
s(g38
I0
tp805
I0
s(g464
I6
tp806
I0
s(g317
I2
tp807
F0.79227
s(g66
I1
tp808
I0
s(g121
I6
tp809
F1.1088779999999998
s(g56
I8
tp810
I0
s(g58
I11
tp811
I0
s(g96
I0
tp812
I0
s(g109
I6
tp813
I0
s(g158
I4
tp814
I0
s(g66
I11
tp815
I0
s(g4
I12
tp816
I0
s(g201
I2
tp817
I0
s(g6
I2
tp818
I0
s(g8
I4
tp819
I0
s(g280
I12
tp820
I0
s(g213
I4
tp821
I0
s(g121
I10
tp822
I0
s(g64
I10
tp823
I0
s(g20
I11
tp824
F-0.12693850638529752
s(g22
I10
tp825
I0
s(g24
I1
tp826
I0
s(g66
I10
tp827
I0
s(g133
I13
tp828
F-0.14384309860121397
s(g28
I8
tp829
I0
s(g30
I2
tp830
I0
s(g82
I9
tp831
I0
s(g38
I5
tp832
I0
s(g30
I10
tp833
I0
s(g278
I12
tp834
I0
s(g144
I10
tp835
I0
s(g201
I13
tp836
I0
s(g278
I4
tp837
I0
s(g464
I1
tp838
I0
s(g44
I13
tp839
I0
s(g213
I1
tp840
I0
s(g146
I7
tp841
I0
s(g49
I9
tp842
I0
s(g201
I8
tp843
I0
s(g54
I1
tp844
I0
s(g56
I1
tp845
I0
s(g58
I0
tp846
I0
s(g162
I6
tp847
I0
s(g103
I13
tp848
I0
s(g61
I9
tp849
I0
s(g66
I0
tp850
I0
s(g38
I11
tp851
I0
s(g6
I11
tp852
I0
s(g111
I12
tp853
I0
s(g12
I11
tp854
I0
s(g115
I12
tp855
I0
s(g14
I13
tp856
F-0.3
s(g75
I1
tp857
I0
s(g20
I2
tp858
I0
s(g22
I1
tp859
F0.6
s(g142
I1
tp860
I0
s(g28
I7
tp861
F0.8870226599999997
s(g317
I3
tp862
I0
s(g82
I0
tp863
I0
s(g86
I7
tp864
I0
s(g30
I3
tp865
I0
s(g278
I11
tp866
I0
s(g32
I6
tp867
I0
s(g162
I7
tp868
I0
s(g42
I6
tp869
F0.6
s(g44
I4
tp870
I0
s(g64
I8
tp871
I0
s(g213
I10
tp872
I0
s(g47
I9
tp873
I0
s(g213
I9
tp874
I0
s(g345
I4
tp875
I0
s(g80
I3
tp876
F0.4608668914812546
s(g201
I7
tp877
I0
s(g52
I6
tp878
I0
s(g54
I8
tp879
I0
s(g56
I6
tp880
I0
s(g146
I9
tp881
I0
s(g103
I4
tp882
F0.0
s(g131
I8
tp883
I0
s(g34
I4
tp884
F0.0
s(g61
I0
tp885
F0.6139190079551174
s(g68
I7
tp886
I0
s(g6
I12
tp887
I0
s(g107
I9
tp888
F0.6
s(g317
I13
tp889
F-0.3
s(g111
I5
tp890
I0
s(g12
I0
tp891
I0
s(g158
I8
tp892
I0
s(g115
I11
tp893
F0.7569413694615248
s(g38
I10
tp894
I0
s(g317
I0
tp895
F-0.3
s(g201
I0
tp896
I0
s(g20
I5
tp897
I0
s(g119
I10
tp898
I0
s(g26
I4
tp899
F0.0
s(g280
I8
tp900
I0
s(g345
I12
tp901
I0
s(g16
I3
tp902
F0.24759657229137647
s(g84
I1
tp903
I0
s(g30
I4
tp904
I0
s(g317
I9
tp905
F0.0
s(g278
I2
tp906
I0
s(g133
I1
tp907
I0
s(g93
I6
tp908
I0
s(g162
I12
tp909
I0
s(g30
I12
tp910
I0
s(g42
I1
tp911
I0
s(g42
I10
tp912
I0
s(g140
I3
tp913
F0.158436291555131
s(g47
I0
tp914
I0
s(g144
I6
tp915
I0
s(g146
I11
tp916
I0
s(g278
I10
tp917
I0
s(g464
I13
tp918
I0
s(g151
I11
tp919
I0
s(g103
I3
tp920
I0
s(g280
I5
tp921
I0
s(g131
I3
tp922
F-0.28074066212694754
s(g58
I12
tp923
I0
s(g162
I4
tp924
I0
s(g107
I6
tp925
I0
s(g80
I11
tp926
I0
s(g111
I2
tp927
I0
s(g158
I3
tp928
I0
s(g115
I2
tp929
I0
s(g245
I3
tp930
I0
s(g4
I9
tp931
F0.6
s(g162
I2
tp932
I0
s(g280
I1
tp933
I0
s(g119
I5
tp934
I0
s(g42
I4
tp935
I0
s(g121
I13
tp936
I0
s(g345
I5
tp937
I0
s(g16
I10
tp938
F0.09522535844799315
s(g84
I8
tp939
I0
s(g22
I13
tp940
I0
s(g10
I4
tp941
F-0.4073984893326002
s(g109
I0
tp942
I0
s(g133
I8
tp943
I0
s(g93
I1
tp944
I0
s(g345
I1
tp945
I0
s(g42
I8
tp946
I0
s(g464
I3
tp947
I0
s(g140
I12
tp948
F0.5389607201320834
s(g32
I10
tp949
I0
s(g34
I1
tp950
F-0.3
s(g278
I9
tp951
I0
s(g146
I0
tp952
I0
s(g464
I4
tp953
F1.02
s(g44
I8
tp954
I0
s(g151
I2
tp955
F0.3
s(g213
I6
tp956
F0.6
s(g26
I9
tp957
I0
s(g56
I10
tp958
I0
s(g58
I5
tp959
I0
s(g40
I1
tp960
I0
s(g61
I12
tp961
I0
s(g4
I5
tp962
I0
s(g80
I6
tp963
I0
stp964
Rp965
.