ccopy_reg
_reconstructor
p0
(cutil
Counter
p1
c__builtin__
dict
p2
(dp3
(S'[[0 0 0 0 0 0 0 0 0 0 0 0 0 0 0 0]\n [0 0 0 0 0 0 0 0 0 0 0 0 0 0 0 0]\n [0 0 0 0 0 0 0 0 0 0 0 0 0 0 0 0]\n [0 0 0 0 0 0 0 0 0 0 0 0 0 0 0 0]\n [0 0 0 0 0 0 0 0 0 0 0 0 0 0 0 0]\n [0 0 0 0 0 0 0 0 0 0 0 0 0 0 0 0]\n [0 0 0 0 0 0 0 0 0 0 0 0 0 0 0 0]\n [0 0 0 0 0 0 0 0 0 0 0 0 0 0 0 0]\n [0 0 0 0 0 0 0 0 0 0 0 0 0 0 0 0]\n [3 3 0 0 0 0 0 0 0 0 0 0 0 0 0 0]\n [0 0 0 0 0 0 0 0 0 0 0 0 0 0 0 0]\n [1 1 1 1 1 1 1 1 1 1 1 1 1 1 1 1]\n [1 1 1 1 1 1 1 1 1 1 1 1 1 1 1 1]]'
p4
I4
tp5
I0
s(S'[[0 0 0 0 0 0 0 0 0 0 0 0 0 0 0 0]\n [0 0 0 0 0 0 0 0 0 0 0 0 0 0 0 0]\n [0 0 0 0 0 0 0 0 0 0 0 0 0 0 0 0]\n [0 0 0 0 0 0 0 0 0 0 0 0 0 0 0 0]\n [0 0 0 0 0 0 0 0 0 0 0 0 0 0 0 0]\n [0 0 0 0 0 0 0 0 0 0 0 0 0 0 0 0]\n [0 0 0 0 0 0 0 0 0 0 0 0 0 0 0 0]\n [0 0 0 0 0 0 0 0 0 0 0 0 0 0 0 0]\n [0 0 0 0 0 0 3 0 0 0 0 0 0 0 0 0]\n [0 0 0 0 0 0 0 0 0 0 0 0 0 0 0 0]\n [0 0 0 0 0 0 0 0 0 0 0 0 1 1 1 1]\n [1 1 1 1 1 1 1 1 1 1 0 0 0 0 0 0]\n [1 1 1 1 1 1 1 1 1 1 0 0 0 0 0 0]]'
p6
I2
tp7
I0
s(S'[[0 0 0 0 0 0 0 0 0 0 0 0 0 0 0 0]\n [0 0 0 0 0 0 0 0 0 0 0 0 0 0 0 0]\n [0 0 0 0 0 0 0 0 0 0 0 0 0 0 0 0]\n [0 0 0 0 0 0 0 0 0 0 0 0 0 0 0 0]\n [0 0 0 0 0 0 0 0 0 0 0 0 0 0 0 0]\n [0 0 0 0 0 0 0 0 0 0 0 0 0 0 0 0]\n [0 0 0 0 0 0 0 0 0 0 0 0 0 0 0 0]\n [0 0 0 0 0 0 0 0 0 0 0 0 0 0 0 0]\n [0 0 0 0 0 0 3 0 0 0 0 0 0 0 0 0]\n [0 0 0 0 0 0 3 0 0 0 0 0 0 0 0 0]\n [0 0 0 0 0 0 0 0 0 0 0 0 0 0 1 1]\n [1 1 1 1 1 1 1 1 1 1 1 1 0 0 0 0]\n [1 1 1 1 1 1 1 1 1 1 1 1 0 0 0 0]]'
p8
I0
tp9
I0
s(S'[[0 0 0 0 0 0 0 0 0 0 0 0 0 0 0 0]\n [0 0 0 0 0 0 0 0 0 0 0 0 0 0 0 0]\n [0 0 0 0 0 0 0 0 0 0 0 0 0 0 0 0]\n [0 0 0 0 0 0 0 0 0 0 0 0 0 0 0 0]\n [0 0 0 0 0 0 0 0 0 0 0 0 0 0 0 0]\n [0 0 0 0 0 0 0 0 0 0 0 0 0 0 0 0]\n [0 0 0 0 0 0 0 0 0 0 0 0 0 0 0 0]\n [0 0 0 0 0 0 0 0 0 0 0 0 0 0 0 0]\n [0 0 0 0 0 0 0 0 0 0 0 0 0 0 0 0]\n [0 0 3 0 0 0 0 0 0 0 0 0 0 0 0 0]\n [0 0 0 0 0 0 0 0 0 0 0 0 0 0 0 0]\n [1 1 1 1 1 1 1 1 1 1 1 1 1 1 1 1]\n [1 1 1 1 1 1 1 1 1 1 1 1 1 1 1 1]]'
p10
I1
tp11
F0.05
s(S'[[0 0 0 0 0 0 0 0 0 0 0 0 0 0 0 0]\n [0 0 0 0 0 0 0 0 0 0 0 0 0 0 0 0]\n [0 0 0 0 0 0 0 0 0 0 0 0 0 0 0 0]\n [0 0 0 0 0 0 0 0 0 0 0 0 0 0 0 0]\n [0 0 0 0 0 0 0 0 0 0 0 0 0 0 0 0]\n [0 0 0 0 0 0 0 0 0 0 0 0 0 0 0 0]\n [0 0 0 0 0 0 0 0 0 0 0 0 0 0 0 0]\n [0 0 0 0 0 0 3 0 0 0 0 0 0 0 0 0]\n [0 0 0 0 0 0 0 0 0 0 0 0 0 0 0 0]\n [0 0 0 0 0 0 0 0 0 0 0 0 0 0 0 0]\n [0 0 0 0 0 0 0 0 0 0 0 0 0 0 0 0]\n [1 1 1 1 1 1 1 1 1 1 1 1 1 1 1 0]\n [1 1 1 1 1 1 1 1 1 1 1 1 1 1 1 0]]'
p12
I6
tp13
I0
s(S'[[0 0 0 0 0 0 0 0 0 0 0 0 0 0 0 0]\n [0 0 0 0 0 0 0 0 0 0 0 0 0 0 0 0]\n [0 0 0 0 0 0 0 0 0 0 0 0 0 0 0 0]\n [0 0 0 0 0 0 0 0 0 0 0 0 0 0 0 0]\n [0 0 0 0 0 0 0 0 0 0 0 0 0 0 0 0]\n [0 0 0 0 0 0 0 0 0 0 0 0 0 0 0 0]\n [0 0 0 0 0 0 0 0 0 0 0 0 0 0 0 0]\n [0 0 0 0 0 0 0 0 0 0 0 0 0 0 0 0]\n [0 0 0 0 0 0 0 0 0 0 0 0 0 0 0 0]\n [0 0 0 0 0 0 0 0 0 0 0 0 0 0 0 0]\n [0 0 0 0 0 0 3 0 0 0 0 0 0 0 1 1]\n [1 1 1 1 1 1 1 1 1 1 1 1 0 0 0 0]\n [1 1 1 1 1 1 1 1 1 1 1 1 0 0 0 0]]'
p14
I0
tp15
I0
s(S'[[0 0 0 0 0 0 0 0 0 0 0 0 0 0 0 0]\n [0 0 0 0 0 0 0 0 0 0 0 0 0 0 0 0]\n [0 0 0 0 0 0 0 0 0 0 0 0 0 0 0 0]\n [0 0 0 0 0 0 0 0 0 0 0 0 0 0 0 0]\n [0 0 0 0 0 0 0 0 0 0 0 0 0 0 0 0]\n [0 0 0 0 0 0 0 0 0 0 0 0 0 0 0 0]\n [0 0 0 0 0 0 0 0 0 0 0 0 0 0 0 0]\n [0 0 0 0 0 0 0 0 0 0 0 0 0 0 0 0]\n [0 0 0 0 0 0 0 0 0 0 0 0 0 0 0 0]\n [0 0 0 0 0 0 0 0 0 0 0 0 0 0 0 0]\n [0 0 0 0 0 3 0 0 0 0 0 0 0 1 1 1]\n [1 1 1 1 1 1 1 1 1 1 1 0 0 0 0 0]\n [1 1 1 1 1 1 1 1 1 1 1 0 0 0 0 0]]'
p16
I6
tp17
I0
s(S'[[0 0 0 0 0 0 0 0 0 0 0 0 0 0 0 0]\n [0 0 0 0 0 0 0 0 0 0 0 0 0 0 0 0]\n [0 0 0 0 0 0 0 0 0 0 0 0 0 0 0 0]\n [0 0 0 0 0 0 0 0 0 0 0 0 0 0 0 0]\n [0 0 0 0 0 0 0 0 0 0 0 0 0 0 0 0]\n [0 0 0 0 0 0 0 0 0 0 0 0 0 0 0 0]\n [0 0 0 0 0 0 0 0 0 0 0 0 0 0 0 0]\n [0 0 0 0 0 0 0 0 0 0 0 0 0 0 0 0]\n [0 0 0 0 0 0 0 0 0 0 0 0 0 0 0 0]\n [3 0 0 0 0 0 0 0 0 0 0 0 0 0 0 0]\n [0 0 0 0 0 0 0 0 0 0 0 0 0 0 0 0]\n [1 1 1 1 1 1 1 1 1 1 1 1 1 1 1 1]\n [1 1 1 1 1 1 1 1 1 1 1 1 1 1 1 1]]'
p18
I7
tp19
I0
s(S'[[0 0 0 0 0 0 0 0 0 0 0 0 0 0 0 0]\n [0 0 0 0 0 0 0 0 0 0 0 0 0 0 0 0]\n [0 0 0 0 0 0 0 0 0 0 0 0 0 0 0 0]\n [0 0 0 0 0 0 0 0 0 0 0 0 0 0 0 0]\n [0 0 0 0 0 0 0 0 0 0 0 0 0 0 0 0]\n [0 0 0 0 0 0 0 0 0 0 0 0 0 0 0 0]\n [0 0 0 0 0 0 0 0 0 0 0 0 0 0 0 0]\n [0 0 0 0 0 0 0 0 0 0 0 0 0 0 0 0]\n [0 0 0 0 0 0 0 0 0 0 0 0 0 0 0 0]\n [0 0 0 0 0 0 0 0 0 0 0 0 0 0 0 0]\n [0 3 3 0 0 0 0 0 0 0 0 0 0 0 0 0]\n [1 1 1 1 1 1 1 1 1 1 1 1 1 1 1 1]\n [1 1 1 1 1 1 1 1 1 1 1 1 1 1 1 1]]'
p20
I13
tp21
I0
s(S'[[0 0 0 0 0 0 0 0 0 0 0 0 0 0 0 0]\n [0 0 0 0 0 0 0 0 0 0 0 0 0 0 0 0]\n [0 0 0 0 0 0 0 0 0 0 0 0 0 0 0 0]\n [0 0 0 0 0 0 0 0 0 0 0 0 0 0 0 0]\n [0 0 0 0 0 0 0 0 0 0 0 0 0 0 0 0]\n [0 0 0 0 0 0 0 0 0 0 0 0 0 0 0 0]\n [0 0 0 0 0 0 0 0 0 0 0 0 0 0 0 0]\n [0 3 0 0 0 0 0 0 0 0 0 0 0 0 0 0]\n [0 0 0 0 0 0 0 0 0 0 0 0 0 0 0 0]\n [0 0 0 0 0 0 0 0 0 0 0 0 0 0 0 0]\n [0 0 0 0 0 0 0 0 0 0 0 0 0 0 0 0]\n [1 1 1 1 1 1 1 1 1 1 1 1 1 1 1 1]\n [1 1 1 1 1 1 1 1 1 1 1 1 1 1 1 1]]'
p22
I5
tp23
I0
s(S'[[0 0 0 0 0 0 0 0 0 0 0 0 0 0 0 0]\n [0 0 0 0 0 0 0 0 0 0 0 0 0 0 0 0]\n [0 0 0 0 0 0 0 0 0 0 0 0 0 0 0 0]\n [0 0 0 0 0 0 0 0 0 0 0 0 0 0 0 0]\n [0 0 0 0 0 0 0 0 0 0 0 0 0 0 0 0]\n [0 0 0 0 0 0 0 0 0 0 0 0 0 0 0 0]\n [0 0 0 0 0 0 0 0 0 0 0 0 0 0 0 0]\n [0 0 0 0 0 0 0 0 0 0 0 0 0 0 0 0]\n [0 0 0 0 0 0 0 3 0 0 0 0 0 0 0 0]\n [0 0 0 0 0 0 0 0 0 0 0 0 0 0 0 0]\n [0 0 0 0 0 0 0 0 0 0 0 0 0 0 0 0]\n [1 1 1 1 1 1 1 1 1 1 1 1 1 1 0 0]\n [1 1 1 1 1 1 1 1 1 1 1 1 1 1 0 0]]'
p24
I10
tp25
I0
s(S'[[0 0 0 0 0 0 0 0 0 0 0 0 0 0 0 0]\n [0 0 0 0 0 0 0 0 0 0 0 0 0 0 0 0]\n [0 0 0 0 0 0 0 0 0 0 0 0 0 0 0 0]\n [0 0 0 0 0 0 0 0 0 0 0 0 0 0 0 0]\n [0 0 0 0 0 0 0 0 0 0 0 0 0 0 0 0]\n [0 0 0 0 0 0 0 0 0 0 0 0 0 0 0 0]\n [0 0 0 0 0 0 0 0 0 0 0 0 0 0 0 0]\n [0 0 0 0 0 0 0 0 0 0 0 0 0 0 0 0]\n [0 0 0 0 0 0 0 0 0 0 0 0 0 0 0 0]\n [0 0 0 0 0 0 3 3 0 0 0 0 0 0 0 0]\n [0 0 0 0 0 0 0 0 0 0 0 0 0 0 0 1]\n [1 1 1 1 1 1 1 1 1 1 1 1 1 0 0 0]\n [1 1 1 1 1 1 1 1 1 1 1 1 1 0 0 0]]'
p26
I12
tp27
I0
s(S'[[0 0 0 0 0 0 0 0 0 0 0 0 0 0 0 0]\n [0 0 0 0 0 0 0 0 0 0 0 0 0 0 0 0]\n [0 0 0 0 0 0 0 0 0 0 0 0 0 0 0 0]\n [0 0 0 0 0 0 0 0 0 0 0 0 0 0 0 0]\n [0 0 0 0 0 0 0 0 0 0 0 0 0 0 0 0]\n [0 0 0 0 0 0 0 0 0 0 0 0 0 0 0 0]\n [0 0 0 0 0 0 0 0 0 0 0 0 0 0 0 0]\n [0 0 0 0 0 0 0 0 0 0 0 0 0 0 0 0]\n [0 0 0 0 0 0 0 0 0 0 0 0 0 0 0 0]\n [0 0 0 0 0 0 0 0 0 0 0 0 0 0 0 0]\n [0 3 0 0 0 0 0 0 0 0 0 0 0 0 0 0]\n [1 1 1 1 1 1 1 1 1 1 1 1 1 1 1 1]\n [1 1 1 1 1 1 1 1 1 1 1 1 1 1 1 1]]'
p28
I2
tp29
F0.11499304003738325
s(S'[[0 0 0 0 0 0 0 0 0 0 0 0 0 0 0 0]\n [0 0 0 0 0 0 0 0 0 0 0 0 0 0 0 0]\n [0 0 0 0 0 0 0 0 0 0 0 0 0 0 0 0]\n [0 0 0 0 0 0 0 0 0 0 0 0 0 0 0 0]\n [0 0 0 0 0 0 0 0 0 0 0 0 0 0 0 0]\n [0 0 0 0 0 0 0 0 0 0 0 0 0 0 0 0]\n [0 0 0 0 0 0 0 0 0 0 0 0 0 0 0 0]\n [0 0 0 0 0 0 0 0 0 0 0 0 0 0 0 0]\n [0 0 0 0 0 0 0 3 0 0 0 0 0 0 0 0]\n [0 0 0 0 0 0 0 0 0 0 0 0 0 0 0 0]\n [0 0 0 0 0 0 0 0 0 0 0 0 0 0 0 1]\n [1 1 1 1 1 1 1 1 1 1 1 1 1 0 0 0]\n [1 1 1 1 1 1 1 1 1 1 1 1 1 0 0 0]]'
p30
I9
tp31
I0
s(S'[[0 0 0 0 0 0 0 0 0 0 0 0 0 0 0 0]\n [0 0 0 0 0 0 0 0 0 0 0 0 0 0 0 0]\n [0 0 0 0 0 0 0 0 0 0 0 0 0 0 0 0]\n [0 0 0 0 0 0 0 0 0 0 0 0 0 0 0 0]\n [0 0 0 0 0 0 0 0 0 0 0 0 0 0 0 0]\n [0 0 0 0 0 0 0 0 0 0 0 0 0 0 0 0]\n [0 0 0 0 0 0 0 0 0 0 0 0 0 0 0 0]\n [0 0 0 0 0 0 0 0 0 0 0 0 0 0 0 0]\n [0 0 0 0 0 0 0 0 0 0 0 0 0 0 0 0]\n [0 0 0 0 0 0 0 0 0 0 0 0 0 0 0 0]\n [0 0 3 0 0 0 0 0 0 0 0 0 0 0 0 0]\n [1 1 1 1 1 1 1 1 1 1 1 1 1 1 1 1]\n [1 1 1 1 1 1 1 1 1 1 1 1 1 1 1 1]]'
p32
I9
tp33
F1.976115234375
s(S'[[0 0 0 0 0 0 0 0 0 0 0 0 0 0 0 0]\n [0 0 0 0 0 0 0 0 0 0 0 0 0 0 0 0]\n [0 0 0 0 0 0 0 0 0 0 0 0 0 0 0 0]\n [0 0 0 0 0 0 0 0 0 0 0 0 0 0 0 0]\n [0 0 0 0 0 0 0 0 0 0 0 0 0 0 0 0]\n [0 0 0 0 0 0 0 0 0 0 0 0 0 0 0 0]\n [0 0 0 0 0 0 0 0 0 0 0 0 0 0 0 0]\n [0 0 0 0 0 0 0 0 0 0 0 0 0 0 0 0]\n [0 0 0 0 0 0 3 0 0 0 0 0 0 0 0 0]\n [0 0 0 0 0 0 0 0 0 0 0 0 0 0 0 0]\n [0 0 0 0 0 0 0 0 0 0 0 0 0 1 1 1]\n [1 1 1 1 1 1 1 1 1 1 1 0 0 0 0 0]\n [1 1 1 1 1 1 1 1 1 1 1 0 0 0 0 0]]'
p34
I7
tp35
F0.0
s(S'[[0 0 0 0 0 0 0 0 0 0 0 0 0 0 0 0]\n [0 0 0 0 0 0 0 0 0 0 0 0 0 0 0 0]\n [0 0 0 0 0 0 0 0 0 0 0 0 0 0 0 0]\n [0 0 0 0 0 0 0 0 0 0 0 0 0 0 0 0]\n [0 0 0 0 0 0 0 0 0 0 0 0 0 0 0 0]\n [0 0 0 0 0 0 0 0 0 0 0 0 0 0 0 0]\n [0 0 0 0 0 0 0 0 0 0 0 0 0 0 0 0]\n [0 0 0 0 0 0 0 0 0 0 0 0 0 0 0 0]\n [0 0 0 0 0 0 3 0 0 0 0 0 0 0 0 0]\n [0 0 0 0 0 0 0 0 0 0 0 0 0 0 0 0]\n [0 0 0 0 0 0 0 0 0 0 0 1 1 1 1 0]\n [1 1 1 1 1 1 1 1 1 0 0 0 0 0 0 0]\n [1 1 1 1 1 1 1 1 1 0 0 0 0 0 0 0]]'
p36
I13
tp37
I0
s(S'[[0 0 0 0 0 0 0 0 0 0 0 0 0 0 0 0]\n [0 0 0 0 0 0 0 0 0 0 0 0 0 0 0 0]\n [0 0 0 0 0 0 0 0 0 0 0 0 0 0 0 0]\n [0 0 0 0 0 0 0 0 0 0 0 0 0 0 0 0]\n [0 0 0 0 0 0 0 0 0 0 0 0 0 0 0 0]\n [0 0 0 0 0 0 0 0 0 0 0 0 0 0 0 0]\n [0 0 0 0 0 0 0 0 0 0 0 0 0 0 0 0]\n [0 0 0 0 0 0 0 0 0 0 0 0 0 0 0 0]\n [0 0 0 0 0 0 3 0 0 0 0 0 0 0 0 0]\n [0 0 0 0 0 0 0 0 0 0 0 0 0 0 0 0]\n [0 0 0 0 0 0 0 0 0 0 0 0 0 0 0 1]\n [1 1 1 1 1 1 1 1 1 1 1 1 1 0 0 0]\n [1 1 1 1 1 1 1 1 1 1 1 1 1 0 0 0]]'
p38
I9
tp39
I0
s(S'[[0 0 0 0 0 0 0 0 0 0 0 0 0 0 0 0]\n [0 0 0 0 0 0 0 0 0 0 0 0 0 0 0 0]\n [0 0 0 0 0 0 0 0 0 0 0 0 0 0 0 0]\n [0 0 0 0 0 0 0 0 0 0 0 0 0 0 0 0]\n [0 0 0 0 0 0 0 0 0 0 0 0 0 0 0 0]\n [0 0 0 0 0 0 0 0 0 0 0 0 0 0 0 0]\n [0 0 0 0 0 0 0 0 0 0 0 0 0 0 0 0]\n [0 0 0 0 0 0 0 0 0 0 0 0 0 0 0 0]\n [0 0 0 0 0 0 0 0 0 0 0 0 0 0 0 0]\n [0 3 0 0 0 0 0 0 0 0 0 0 0 0 0 0]\n [0 3 0 0 0 0 0 0 0 0 0 0 0 0 0 0]\n [1 1 1 1 1 1 1 1 1 1 1 1 1 1 1 1]\n [1 1 1 1 1 1 1 1 1 1 1 1 1 1 1 1]]'
p40
I8
tp41
I0
s(S'[[0 0 0 0 0 0 0 0 0 0 0 0 0 0 0 0]\n [0 0 0 0 0 0 0 0 0 0 0 0 0 0 0 0]\n [0 0 0 0 0 0 0 0 0 0 0 0 0 0 0 0]\n [0 0 0 0 0 0 0 0 0 0 0 0 0 0 0 0]\n [0 0 0 0 0 0 0 0 0 0 0 0 0 0 0 0]\n [0 0 0 0 0 0 0 0 0 0 0 0 0 0 0 0]\n [0 0 0 0 0 0 0 0 0 0 0 0 0 0 0 0]\n [0 0 0 0 0 0 0 0 0 0 0 0 0 0 0 0]\n [0 0 0 0 0 0 0 0 0 0 0 0 0 0 0 0]\n [0 3 0 0 0 0 0 0 0 0 0 0 0 0 0 0]\n [0 0 0 0 0 0 0 0 0 0 0 0 0 0 0 0]\n [1 1 1 1 1 1 1 1 1 1 1 1 1 1 1 1]\n [1 1 1 1 1 1 1 1 1 1 1 1 1 1 1 1]]'
p42
I7
tp43
F-0.5
s(S'[[0 0 0 0 0 0 0 0 0 0 0 0 0 0 0 0]\n [0 0 0 0 0 0 0 0 0 0 0 0 0 0 0 0]\n [0 0 0 0 0 0 0 0 0 0 0 0 0 0 0 0]\n [0 0 0 0 0 0 0 0 0 0 0 0 0 0 0 0]\n [0 0 0 0 0 0 0 0 0 0 0 0 0 0 0 0]\n [0 0 0 0 0 0 0 0 0 0 0 0 0 0 0 0]\n [0 0 0 0 0 0 0 0 0 0 0 0 0 0 0 0]\n [0 0 0 0 0 0 0 0 0 0 0 0 0 0 0 0]\n [0 0 0 0 0 0 0 0 0 0 0 0 0 0 0 0]\n [0 0 0 0 0 0 0 0 0 0 0 0 0 0 0 0]\n [0 0 0 0 0 0 3 0 0 0 0 0 0 1 1 1]\n [1 1 1 1 1 1 1 1 1 1 1 0 0 0 0 0]\n [1 1 1 1 1 1 1 1 1 1 1 0 0 0 0 0]]'
p44
I2
tp45
I0
s(S'[[0 0 0 0 0 0 0 0 0 0 0 0 0 0 0 0]\n [0 0 0 0 0 0 0 0 0 0 0 0 0 0 0 0]\n [0 0 0 0 0 0 0 0 0 0 0 0 0 0 0 0]\n [0 0 0 0 0 0 0 0 0 0 0 0 0 0 0 0]\n [0 0 0 0 0 0 0 0 0 0 0 0 0 0 0 0]\n [0 0 0 0 0 0 0 0 0 0 0 0 0 0 0 0]\n [0 0 0 0 0 0 0 0 0 0 0 0 0 0 0 0]\n [0 0 0 0 0 0 0 0 0 0 0 0 0 0 0 0]\n [0 0 0 0 0 0 0 0 0 0 0 0 0 0 0 0]\n [0 0 0 0 0 0 0 3 0 0 0 0 0 0 0 0]\n [0 0 0 0 0 0 0 0 0 0 0 0 0 0 0 1]\n [1 1 1 1 1 1 1 1 1 1 1 1 1 0 0 0]\n [1 1 1 1 1 1 1 1 1 1 1 1 1 0 0 0]]'
p46
I6
tp47
I0
s(S'[[0 0 0 0 0 0 0 0 0 0 0 0 0 0 0 0]\n [0 0 0 0 0 0 0 0 0 0 0 0 0 0 0 0]\n [0 0 0 0 0 0 0 0 0 0 0 0 0 0 0 0]\n [0 0 0 0 0 0 0 0 0 0 0 0 0 0 0 0]\n [0 0 0 0 0 0 0 0 0 0 0 0 0 0 0 0]\n [0 0 0 0 0 0 0 0 0 0 0 0 0 0 0 0]\n [0 0 0 0 0 0 0 0 0 0 0 0 0 0 0 0]\n [0 0 0 0 0 0 0 0 0 0 0 0 0 0 1 1]\n [0 0 0 0 0 0 0 0 0 0 0 0 0 0 0 0]\n [0 0 0 0 0 0 0 0 0 0 0 0 0 0 0 0]\n [0 0 0 0 0 0 0 0 1 1 1 1 0 0 0 0]\n [1 1 1 1 1 1 0 0 0 0 0 0 0 0 0 0]\n [1 1 1 1 1 1 0 0 0 0 0 0 0 0 0 0]]'
p48
I0
tp49
I0
s(S'[[0 0 0 0 0 0 0 0 0 0 0 0 0 0 0 0]\n [0 0 0 0 0 0 0 0 0 0 0 0 0 0 0 0]\n [0 0 0 0 0 0 0 0 0 0 0 0 0 0 0 0]\n [0 0 0 0 0 0 0 0 0 0 0 0 0 0 0 0]\n [0 0 0 0 0 0 0 0 0 0 0 0 0 0 0 0]\n [0 0 0 0 0 0 0 0 0 0 0 0 0 0 0 0]\n [0 0 0 0 0 0 0 0 0 0 0 0 0 0 0 0]\n [0 0 0 0 0 0 0 0 0 0 0 0 0 0 0 1]\n [0 0 0 0 0 0 3 3 0 0 0 0 0 0 0 0]\n [0 0 0 0 0 0 0 0 0 0 0 0 0 0 0 0]\n [0 0 0 0 0 0 0 0 0 1 1 1 1 0 0 0]\n [1 1 1 1 1 1 1 0 0 0 0 0 0 0 0 0]\n [1 1 1 1 1 1 1 0 0 0 0 0 0 0 0 0]]'
p50
I9
tp51
I0
s(S'[[0 0 0 0 0 0 0 0 0 0 0 0 0 0 0 0]\n [0 0 0 0 0 0 0 0 0 0 0 0 0 0 0 0]\n [0 0 0 0 0 0 0 0 0 0 0 0 0 0 0 0]\n [0 0 0 0 0 0 0 0 0 0 0 0 0 0 0 0]\n [0 0 0 0 0 0 0 0 0 0 0 0 0 0 0 0]\n [0 0 0 0 0 0 0 0 0 0 0 0 0 0 0 0]\n [0 0 0 0 0 0 0 0 0 0 0 0 0 0 0 0]\n [0 0 0 0 0 0 0 0 0 0 0 0 0 0 0 0]\n [0 0 0 0 0 0 3 0 0 0 0 0 0 0 0 0]\n [0 0 0 0 0 0 0 0 0 0 0 0 0 0 0 0]\n [0 0 0 0 0 0 0 0 0 0 0 0 0 0 1 1]\n [1 1 1 1 1 1 1 1 1 1 1 1 0 0 0 0]\n [1 1 1 1 1 1 1 1 1 1 1 1 0 0 0 0]]'
p52
I8
tp53
I0
s(S'[[0 0 0 0 0 0 0 0 0 0 0 0 0 0 0 0]\n [0 0 0 0 0 0 0 0 0 0 0 0 0 0 0 0]\n [0 0 0 0 0 0 0 0 0 0 0 0 0 0 0 0]\n [0 0 0 0 0 0 0 0 0 0 0 0 0 0 0 0]\n [0 0 0 0 0 0 0 0 0 0 0 0 0 0 0 0]\n [0 0 0 0 0 0 0 0 0 0 0 0 0 0 0 0]\n [0 0 0 0 0 0 0 0 0 0 0 0 0 0 0 0]\n [0 0 0 0 0 0 0 0 0 0 0 0 0 0 0 0]\n [0 0 0 0 0 0 0 0 0 0 0 0 0 0 0 0]\n [0 0 0 0 0 0 0 0 0 0 0 0 0 0 0 0]\n [0 0 0 0 0 3 0 0 0 0 0 0 0 0 0 0]\n [1 1 1 1 1 1 1 1 1 1 1 1 1 1 1 1]\n [1 1 1 1 1 1 1 1 1 1 1 1 1 1 1 1]]'
p54
I2
tp55
I0
s(S'[[0 0 0 0 0 0 0 0 0 0 0 0 0 0 0 0]\n [0 0 0 0 0 0 0 0 0 0 0 0 0 0 0 0]\n [0 0 0 0 0 0 0 0 0 0 0 0 0 0 0 0]\n [0 0 0 0 0 0 0 0 0 0 0 0 0 0 0 0]\n [0 0 0 0 0 0 0 0 0 0 0 0 0 0 0 0]\n [0 0 0 0 0 0 0 0 0 0 0 0 0 0 0 0]\n [0 0 0 0 0 0 0 0 0 0 0 0 0 0 0 0]\n [0 0 0 0 0 0 0 0 0 0 0 0 0 0 0 0]\n [3 0 0 0 0 0 0 0 0 0 0 0 0 0 0 0]\n [3 0 0 0 0 0 0 0 0 0 0 0 0 0 0 0]\n [0 0 0 0 0 0 0 0 0 0 0 0 0 0 0 0]\n [1 1 1 1 1 1 1 1 1 1 1 1 1 1 1 1]\n [1 1 1 1 1 1 1 1 1 1 1 1 1 1 1 1]]'
p56
I7
tp57
F0.3013544562988281
s(S'[[0 0 0 0 0 0 0 0 0 0 0 0 0 0 0 0]\n [0 0 0 0 0 0 0 0 0 0 0 0 0 0 0 0]\n [0 0 0 0 0 0 0 0 0 0 0 0 0 0 0 0]\n [0 0 0 0 0 0 0 0 0 0 0 0 0 0 0 0]\n [0 0 0 0 0 0 0 0 0 0 0 0 0 0 0 0]\n [0 0 0 0 0 0 0 0 0 0 0 0 0 0 0 0]\n [0 0 0 0 0 0 0 0 0 0 0 0 0 0 0 0]\n [0 0 0 0 0 0 0 0 0 0 0 0 0 0 0 0]\n [0 0 0 0 0 0 0 0 0 0 0 0 0 0 0 0]\n [0 0 0 0 0 0 0 0 0 0 0 0 0 0 0 0]\n [0 0 0 0 0 0 3 0 0 0 0 0 0 0 0 0]\n [1 1 1 1 1 1 1 1 1 1 1 1 1 1 1 1]\n [1 1 1 1 1 1 1 1 1 1 1 1 1 1 1 1]]'
p58
I9
tp59
I0
s(g8
I9
tp60
F0.375
s(S'[[0 0 0 0 0 0 0 0 0 0 0 0 0 0 0 0]\n [0 0 0 0 0 0 0 0 0 0 0 0 0 0 0 0]\n [0 0 0 0 0 0 0 0 0 0 0 0 0 0 0 0]\n [0 0 0 0 0 0 0 0 0 0 0 0 0 0 0 0]\n [0 0 0 0 0 0 0 0 0 0 0 0 0 0 0 0]\n [0 0 0 0 0 0 0 0 0 0 0 0 0 0 0 0]\n [0 0 0 0 0 0 0 0 0 0 0 0 0 0 0 0]\n [0 0 0 0 0 0 0 0 0 0 0 0 0 0 0 0]\n [0 0 0 0 0 0 3 0 0 0 0 0 0 0 0 0]\n [0 0 0 0 0 0 0 0 0 0 0 0 0 0 0 0]\n [0 0 0 0 0 0 0 0 0 0 0 0 0 0 0 0]\n [1 1 1 1 1 1 1 1 1 1 1 1 1 1 1 1]\n [1 1 1 1 1 1 1 1 1 1 1 1 1 1 1 1]]'
p61
I5
tp62
I0
s(S'[[0 0 0 0 0 0 0 0 0 0 0 0 0 0 0 0]\n [0 0 0 0 0 0 0 0 0 0 0 0 0 0 0 0]\n [0 0 0 0 0 0 0 0 0 0 0 0 0 0 0 0]\n [0 0 0 0 0 0 0 0 0 0 0 0 0 0 0 0]\n [0 0 0 0 0 0 0 0 0 0 0 0 0 0 0 0]\n [0 0 0 0 0 0 0 0 0 0 0 0 0 0 0 0]\n [0 0 0 0 0 0 0 0 0 0 0 0 0 0 0 0]\n [0 0 0 0 0 0 0 0 0 0 0 0 0 0 0 0]\n [0 0 0 0 0 0 0 0 0 0 0 0 0 0 0 0]\n [0 0 0 0 0 0 3 0 0 0 0 0 0 0 0 0]\n [0 0 0 0 0 0 0 0 0 0 0 0 0 1 1 1]\n [1 1 1 1 1 1 1 1 1 1 1 0 0 0 0 0]\n [1 1 1 1 1 1 1 1 1 1 1 0 0 0 0 0]]'
p63
I9
tp64
F0.0
s(S'[[0 0 0 0 0 0 0 0 0 0 0 0 0 0 0 0]\n [0 0 0 0 0 0 0 0 0 0 0 0 0 0 0 0]\n [0 0 0 0 0 0 0 0 0 0 0 0 0 0 0 0]\n [0 0 0 0 0 0 0 0 0 0 0 0 0 0 0 0]\n [0 0 0 0 0 0 0 0 0 0 0 0 0 0 0 0]\n [0 0 0 0 0 0 0 0 0 0 0 0 0 0 0 0]\n [0 0 0 0 0 0 3 0 0 0 0 0 0 0 0 0]\n [0 0 0 0 0 0 0 0 0 0 0 0 0 0 0 0]\n [0 0 0 0 0 0 0 0 0 0 0 0 0 0 0 0]\n [0 0 0 0 0 0 0 0 0 0 0 0 0 0 0 0]\n [0 0 0 0 0 0 0 0 0 0 0 0 0 0 0 0]\n [1 1 1 1 1 1 1 1 1 1 1 1 1 1 1 0]\n [1 1 1 1 1 1 1 1 1 1 1 1 1 1 1 0]]'
p65
I6
tp66
I0
s(g20
I10
tp67
I0
s(S'[[0 0 0 0 0 0 0 0 0 0 0 0 0 0 0 0]\n [0 0 0 0 0 0 0 0 0 0 0 0 0 0 0 0]\n [0 0 0 0 0 0 0 0 0 0 0 0 0 0 0 0]\n [0 0 0 0 0 0 0 0 0 0 0 0 0 0 0 0]\n [0 0 0 0 0 0 0 0 0 0 0 0 0 0 0 0]\n [0 0 0 0 0 0 0 0 0 0 0 0 0 0 0 0]\n [0 0 0 0 0 0 0 0 0 0 0 0 0 0 0 0]\n [0 0 0 0 0 0 0 3 0 0 0 0 0 0 0 0]\n [0 0 0 0 0 0 0 0 0 0 0 0 0 0 0 0]\n [0 0 0 0 0 0 0 0 0 0 0 0 0 0 0 0]\n [0 0 0 0 0 0 0 0 0 0 0 0 0 0 0 0]\n [1 1 1 1 1 1 1 1 1 1 1 1 1 1 0 0]\n [1 1 1 1 1 1 1 1 1 1 1 1 1 1 0 0]]'
p68
I11
tp69
I0
s(S'[[0 0 0 0 0 0 0 0 0 0 0 0 0 0 0 0]\n [0 0 0 0 0 0 0 0 0 0 0 0 0 0 0 0]\n [0 0 0 0 0 0 0 0 0 0 0 0 0 0 0 0]\n [0 0 0 0 0 0 0 0 0 0 0 0 0 0 0 0]\n [0 0 0 0 0 0 0 0 0 0 0 0 0 0 0 0]\n [0 0 0 0 0 0 0 0 0 0 0 0 0 0 0 0]\n [0 0 0 0 0 0 0 0 0 0 0 0 0 0 0 0]\n [0 0 0 0 0 0 0 0 0 0 0 0 0 0 0 0]\n [0 0 0 0 0 0 0 0 0 0 0 0 0 0 0 0]\n [0 0 0 0 0 0 3 0 0 0 0 0 0 0 0 0]\n [0 0 0 0 0 0 0 0 0 0 0 0 1 1 1 1]\n [1 1 1 1 1 1 1 1 1 1 0 0 0 0 0 0]\n [1 1 1 1 1 1 1 1 1 1 0 0 0 0 0 0]]'
p70
I1
tp71
I0
s(S'[[0 0 0 0 0 0 0 0 0 0 0 0 0 0 0 0]\n [0 0 0 0 0 0 0 0 0 0 0 0 0 0 0 0]\n [0 0 0 0 0 0 0 0 0 0 0 0 0 0 0 0]\n [0 0 0 0 0 0 0 0 0 0 0 0 0 0 0 0]\n [0 0 0 0 0 0 0 0 0 0 0 0 0 0 0 0]\n [0 0 0 0 0 0 0 0 0 0 0 0 0 0 0 0]\n [0 0 0 0 0 0 0 0 0 0 0 0 0 0 0 0]\n [0 0 0 0 0 0 0 0 0 0 0 0 0 0 0 0]\n [0 0 0 0 0 0 0 0 0 0 0 0 0 0 0 0]\n [0 0 0 0 0 0 3 0 0 0 0 0 0 0 0 0]\n [0 0 0 0 0 0 0 0 0 0 0 0 0 0 0 1]\n [1 1 1 1 1 1 1 1 1 1 1 1 1 0 0 0]\n [1 1 1 1 1 1 1 1 1 1 1 1 1 0 0 0]]'
p72
I8
tp73
I0
s(S'[[0 0 0 0 0 0 0 0 0 0 0 0 0 0 0 0]\n [0 0 0 0 0 0 0 0 0 0 0 0 0 0 0 0]\n [0 0 0 0 0 0 0 0 0 0 0 0 0 0 0 0]\n [0 0 0 0 0 0 0 0 0 0 0 0 0 0 0 0]\n [0 0 0 0 0 0 0 0 0 0 0 0 0 0 0 0]\n [0 0 0 0 0 0 0 0 0 0 0 0 0 0 0 0]\n [0 0 0 0 0 0 0 0 0 0 0 0 0 0 0 0]\n [0 0 0 0 0 0 0 0 0 0 0 0 0 0 0 0]\n [3 0 0 0 0 0 0 0 0 0 0 0 0 0 0 0]\n [0 0 0 0 0 0 0 0 0 0 0 0 0 0 0 0]\n [0 0 0 0 0 0 0 0 0 0 0 0 0 0 0 0]\n [1 1 1 1 1 1 1 1 1 1 1 1 1 1 1 1]\n [1 1 1 1 1 1 1 1 1 1 1 1 1 1 1 1]]'
p74
I6
tp75
F0.0
s(g28
I9
tp76
F0.010447514730074166
s(g32
I0
tp77
I0
s(S'[[0 0 0 0 0 0 0 0 0 0 0 0 0 0 0 0]\n [0 0 0 0 0 0 0 0 0 0 0 0 0 0 0 0]\n [0 0 0 0 0 0 0 0 0 0 0 0 0 0 0 0]\n [0 0 0 0 0 0 0 0 0 0 0 0 0 0 0 0]\n [0 0 0 0 0 0 0 0 0 0 0 0 0 0 0 0]\n [0 0 0 0 0 0 0 0 0 0 0 0 0 0 0 0]\n [0 0 0 0 0 0 0 0 0 0 0 0 0 0 0 0]\n [0 0 0 0 0 0 0 0 0 0 0 0 0 0 0 0]\n [0 0 0 0 0 0 0 0 0 0 0 0 0 0 0 0]\n [0 0 0 0 0 0 0 0 0 0 0 0 0 0 0 0]\n [0 0 0 0 0 0 3 0 0 0 0 0 0 0 0 1]\n [1 1 1 1 1 1 1 1 1 1 1 1 1 0 0 0]\n [1 1 1 1 1 1 1 1 1 1 1 1 1 0 0 0]]'
p78
I1
tp79
I0
s(g36
I4
tp80
F1.9264062499999999
s(g40
I1
tp81
I0
s(S'[[0 0 0 0 0 0 0 0 0 0 0 0 0 0 0 0]\n [0 0 0 0 0 0 0 0 0 0 0 0 0 0 0 0]\n [0 0 0 0 0 0 0 0 0 0 0 0 0 0 0 0]\n [0 0 0 0 0 0 0 0 0 0 0 0 0 0 0 0]\n [0 0 0 0 0 0 0 0 0 0 0 0 0 0 0 0]\n [0 0 0 0 0 0 0 0 0 0 0 0 0 0 0 0]\n [0 0 0 0 0 0 0 0 0 0 0 0 0 0 0 0]\n [0 0 0 0 0 0 0 0 0 0 0 0 0 0 0 1]\n [0 0 0 0 0 0 3 0 0 0 0 0 0 0 0 0]\n [0 0 0 0 0 0 3 0 0 0 0 0 0 0 0 0]\n [0 0 0 0 0 0 0 0 0 1 1 1 1 0 0 0]\n [1 1 1 1 1 1 1 0 0 0 0 0 0 0 0 0]\n [1 1 1 1 1 1 1 0 0 0 0 0 0 0 0 0]]'
p82
I13
tp83
I0
s(S'[[0 0 0 0 0 0 0 0 0 0 0 0 0 0 0 0]\n [0 0 0 0 0 0 0 0 0 0 0 0 0 0 0 0]\n [0 0 0 0 0 0 0 0 0 0 0 0 0 0 0 0]\n [0 0 0 0 0 0 0 0 0 0 0 0 0 0 0 0]\n [0 0 0 0 0 0 0 0 0 0 0 0 0 0 0 0]\n [0 0 0 0 0 0 0 0 0 0 0 0 0 0 0 0]\n [0 0 0 0 0 0 0 0 0 0 0 0 0 0 0 0]\n [0 0 0 0 0 0 0 0 0 0 0 0 0 0 0 0]\n [0 0 0 3 0 0 0 0 0 0 0 0 0 0 0 0]\n [0 0 0 0 0 0 0 0 0 0 0 0 0 0 0 0]\n [0 0 0 0 0 0 0 0 0 0 0 0 0 0 0 0]\n [1 1 1 1 1 1 1 1 1 1 1 1 1 1 1 1]\n [1 1 1 1 1 1 1 1 1 1 1 1 1 1 1 1]]'
p84
I0
tp85
F0.0
s(S'[[0 0 0 0 0 0 0 0 0 0 0 0 0 0 0 0]\n [0 0 0 0 0 0 0 0 0 0 0 0 0 0 0 0]\n [0 0 0 0 0 0 0 0 0 0 0 0 0 0 0 0]\n [0 0 0 0 0 0 0 0 0 0 0 0 0 0 0 0]\n [0 0 0 0 0 0 0 0 0 0 0 0 0 0 0 0]\n [0 0 0 0 0 0 0 0 0 0 0 0 0 0 0 0]\n [0 0 0 0 0 0 0 0 0 0 0 0 0 0 0 0]\n [0 0 0 0 0 0 0 0 0 0 0 0 0 0 0 0]\n [0 0 0 0 0 0 0 0 0 0 0 0 0 0 0 0]\n [0 0 0 0 0 0 0 0 0 0 0 0 0 0 0 0]\n [0 0 0 0 0 0 0 3 0 0 0 0 0 0 0 1]\n [1 1 1 1 1 1 1 1 1 1 1 1 1 0 0 0]\n [1 1 1 1 1 1 1 1 1 1 1 1 1 0 0 0]]'
p86
I8
tp87
I0
s(g54
I9
tp88
F4.298037382812501
s(g58
I0
tp89
I0
s(S'[[0 0 0 0 0 0 0 0 0 0 0 0 0 0 0 0]\n [0 0 0 0 0 0 0 0 0 0 0 0 0 0 0 0]\n [0 0 0 0 0 0 0 0 0 0 0 0 0 0 0 0]\n [0 0 0 0 0 0 0 0 0 0 0 0 0 0 0 0]\n [0 0 0 0 0 0 0 0 0 0 0 0 0 0 0 0]\n [0 0 0 0 0 0 0 0 0 0 0 0 0 0 0 0]\n [0 0 0 0 0 0 0 0 0 0 0 0 0 0 0 0]\n [0 0 0 0 0 0 0 0 0 0 0 0 0 0 0 0]\n [0 0 0 0 0 0 0 0 0 0 0 0 0 0 0 0]\n [0 0 0 0 0 0 0 0 0 0 0 0 0 0 0 0]\n [3 3 0 0 0 0 0 0 0 0 0 0 0 0 0 0]\n [1 1 1 1 1 1 1 1 1 1 1 1 1 1 1 1]\n [1 1 1 1 1 1 1 1 1 1 1 1 1 1 1 1]]'
p90
I13
tp91
F0.0
s(g63
I2
tp92
F0.0
s(S'[[0 0 0 0 0 0 0 0 0 0 0 0 0 0 0 0]\n [0 0 0 0 0 0 0 0 0 0 0 0 0 0 0 0]\n [0 0 0 0 0 0 0 0 0 0 0 0 0 0 0 0]\n [0 0 0 0 0 0 0 0 0 0 0 0 0 0 0 0]\n [0 0 0 0 0 0 0 0 0 0 0 0 0 0 0 0]\n [0 0 0 0 0 0 0 0 0 0 0 0 0 0 0 0]\n [0 0 0 0 0 0 0 0 0 0 0 0 0 0 0 0]\n [0 0 0 0 0 0 0 0 0 0 0 0 0 0 0 0]\n [0 0 0 0 0 0 0 0 0 0 0 0 0 0 0 0]\n [0 0 0 0 0 0 3 0 0 0 0 0 0 0 0 0]\n [0 0 0 0 0 0 0 0 0 0 0 1 1 1 1 0]\n [1 1 1 1 1 1 1 1 1 0 0 0 0 0 0 0]\n [1 1 1 1 1 1 1 1 1 0 0 0 0 0 0 0]]'
p93
I2
tp94
I0
s(g65
I1
tp95
I0
s(S'[[0 0 0 0 0 0 0 0 0 0 0 0 0 0 0 0]\n [0 0 0 0 0 0 0 0 0 0 0 0 0 0 0 0]\n [0 0 0 0 0 0 0 0 0 0 0 0 0 0 0 0]\n [0 0 0 0 0 0 0 0 0 0 0 0 0 0 0 0]\n [0 0 0 0 0 0 0 0 0 0 0 0 0 0 0 0]\n [0 0 0 0 0 0 0 0 0 0 0 0 0 0 0 0]\n [0 0 0 0 0 0 0 0 0 0 0 0 0 0 0 0]\n [0 0 0 0 0 0 3 0 0 0 0 0 0 0 0 0]\n [0 0 0 0 0 0 0 0 0 0 0 0 0 0 0 0]\n [0 0 0 0 0 0 0 0 0 0 0 0 0 0 0 0]\n [0 0 0 0 0 0 0 0 0 0 0 1 1 1 1 0]\n [1 1 1 1 1 1 1 1 1 0 0 0 0 0 0 0]\n [1 1 1 1 1 1 1 1 1 0 0 0 0 0 0 0]]'
p96
I8
tp97
I0
s(g20
I3
tp98
I0
s(g68
I2
tp99
I0
s(g30
I7
tp100
I0
s(S'[[0 0 0 0 0 0 0 0 0 0 0 0 0 0 0 0]\n [0 0 0 0 0 0 0 0 0 0 0 0 0 0 0 0]\n [0 0 0 0 0 0 0 0 0 0 0 0 0 0 0 0]\n [0 0 0 0 0 0 0 0 0 0 0 0 0 0 0 0]\n [0 0 0 0 0 0 0 0 0 0 0 0 0 0 0 0]\n [0 0 0 0 0 0 0 0 0 0 0 0 0 0 0 0]\n [0 0 0 0 0 0 0 0 0 0 0 0 0 0 0 0]\n [0 0 0 0 0 0 0 0 0 0 0 0 0 0 0 0]\n [0 0 0 0 0 0 0 0 0 0 0 0 0 0 0 0]\n [0 0 0 0 0 0 0 0 0 0 0 0 0 0 0 0]\n [0 0 0 0 0 3 0 0 0 0 0 0 1 1 1 1]\n [1 1 1 1 1 1 1 1 1 1 0 0 0 0 0 0]\n [1 1 1 1 1 1 1 1 1 1 0 0 0 0 0 0]]'
p101
I9
tp102
I0
s(g78
I6
tp103
I0
s(S'[[0 0 0 0 0 0 0 0 0 0 0 0 0 0 0 0]\n [0 0 0 0 0 0 0 0 0 0 0 0 0 0 0 0]\n [0 0 0 0 0 0 0 0 0 0 0 0 0 0 0 0]\n [0 0 0 0 0 0 0 0 0 0 0 0 0 0 0 0]\n [0 0 0 0 0 0 0 0 0 0 0 0 0 0 0 0]\n [0 0 0 0 0 0 0 0 0 0 0 0 0 0 0 0]\n [0 0 0 0 0 0 0 0 0 0 0 0 0 0 0 0]\n [0 0 0 0 0 0 0 0 0 0 0 0 0 0 0 0]\n [0 0 0 0 3 0 0 0 0 0 0 0 0 0 0 0]\n [0 0 0 0 0 0 0 0 0 0 0 0 0 0 0 0]\n [0 0 0 0 0 0 0 0 0 0 0 0 0 0 0 0]\n [1 1 1 1 1 1 1 1 1 1 1 1 1 1 1 1]\n [1 1 1 1 1 1 1 1 1 1 1 1 1 1 1 1]]'
p104
I4
tp105
F1.0625
s(S'[[0 0 0 0 0 0 0 0 0 0 0 0 0 0 0 0]\n [0 0 0 0 0 0 0 0 0 0 0 0 0 0 0 0]\n [0 0 0 0 0 0 0 0 0 0 0 0 0 0 0 0]\n [0 0 0 0 0 0 0 0 0 0 0 0 0 0 0 0]\n [0 0 0 0 0 0 0 0 0 0 0 0 0 0 0 0]\n [0 0 0 0 0 0 0 0 0 0 0 0 0 0 0 0]\n [0 0 0 0 0 0 0 0 0 0 0 0 0 0 0 0]\n [0 0 0 0 0 0 0 0 0 0 0 0 0 0 0 0]\n [0 0 0 0 0 0 0 0 0 0 0 0 0 0 0 0]\n [0 0 0 0 0 0 0 0 0 0 0 0 0 0 0 0]\n [0 0 0 0 3 0 0 0 0 0 0 0 0 0 0 0]\n [1 1 1 1 1 1 1 1 1 1 1 1 1 1 1 1]\n [1 1 1 1 1 1 1 1 1 1 1 1 1 1 1 1]]'
p106
I8
tp107
I0
s(S'[[0 0 0 0 0 0 0 0 0 0 0 0 0 0 0 0]\n [0 0 0 0 0 0 0 0 0 0 0 0 0 0 0 0]\n [0 0 0 0 0 0 0 0 0 0 0 0 0 0 0 0]\n [0 0 0 0 0 0 0 0 0 0 0 0 0 0 0 0]\n [0 0 0 0 0 0 0 0 0 0 0 0 0 0 0 0]\n [0 0 0 0 0 0 0 0 0 0 0 0 0 0 0 0]\n [0 0 0 0 0 0 0 0 0 0 0 0 0 0 0 0]\n [0 0 0 0 0 0 0 0 0 0 0 0 0 0 0 0]\n [0 3 0 0 0 0 0 0 0 0 0 0 0 0 0 0]\n [0 0 0 0 0 0 0 0 0 0 0 0 0 0 0 0]\n [0 0 0 0 0 0 0 0 0 0 0 0 0 0 0 0]\n [1 1 1 1 1 1 1 1 1 1 1 1 1 1 1 1]\n [1 1 1 1 1 1 1 1 1 1 1 1 1 1 1 1]]'
p108
I6
tp109
F-0.12865625
s(g90
I10
tp110
I0
s(g106
I9
tp111
I0
s(g93
I9
tp112
I0
s(S'[[0 0 0 0 0 0 0 0 0 0 0 0 0 0 0 0]\n [0 0 0 0 0 0 0 0 0 0 0 0 0 0 0 0]\n [0 0 0 0 0 0 0 0 0 0 0 0 0 0 0 0]\n [0 0 0 0 0 0 0 0 0 0 0 0 0 0 0 0]\n [0 0 0 0 0 0 0 0 0 0 0 0 0 0 0 0]\n [0 0 0 0 0 0 0 3 0 0 0 0 0 0 0 0]\n [0 0 0 0 0 0 0 0 0 0 0 0 0 0 0 0]\n [0 0 0 0 0 0 0 0 0 0 0 0 0 0 0 0]\n [0 0 0 0 0 0 0 0 0 0 0 0 0 0 0 0]\n [0 0 0 0 0 0 0 0 0 0 0 0 0 0 0 0]\n [0 0 0 0 0 0 0 0 0 0 0 0 0 0 0 0]\n [1 1 1 1 1 1 1 1 1 1 1 1 1 1 0 0]\n [1 1 1 1 1 1 1 1 1 1 1 1 1 1 0 0]]'
p113
I3
tp114
I0
s(g96
I7
tp115
F0.75
s(g68
I5
tp116
I0
s(S'[[0 0 0 0 0 0 0 0 0 0 0 0 0 0 0 0]\n [0 0 0 0 0 0 0 0 0 0 0 0 0 0 0 0]\n [0 0 0 0 0 0 0 0 0 0 0 0 0 0 0 0]\n [0 0 0 0 0 0 0 0 0 0 0 0 0 0 0 0]\n [0 0 0 0 0 0 0 0 0 0 0 0 0 0 0 0]\n [0 0 0 0 0 0 0 0 0 0 0 0 0 0 0 0]\n [0 0 0 0 0 0 0 0 0 0 0 0 0 0 0 0]\n [0 0 0 0 0 0 0 0 0 0 0 0 0 0 0 1]\n [0 0 0 0 0 0 0 0 0 0 0 0 0 0 0 0]\n [0 0 0 0 0 0 0 3 0 0 0 0 0 0 0 0]\n [0 0 0 0 0 0 0 0 0 1 1 1 1 0 0 0]\n [1 1 1 1 1 1 1 0 0 0 0 0 0 0 0 0]\n [1 1 1 1 1 1 1 0 0 0 0 0 0 0 0 0]]'
p117
I13
tp118
F1.3125
s(g86
I5
tp119
I0
s(S'[[0 0 0 0 0 0 0 0 0 0 0 0 0 0 0 0]\n [0 0 0 0 0 0 0 0 0 0 0 0 0 0 0 0]\n [0 0 0 0 0 0 0 0 0 0 0 0 0 0 0 0]\n [0 0 0 0 0 0 0 0 0 0 0 0 0 0 0 0]\n [0 0 0 0 0 0 0 0 0 0 0 0 0 0 0 0]\n [0 0 0 0 0 0 0 0 0 0 0 0 0 0 0 0]\n [0 0 0 0 0 0 0 0 0 0 0 0 0 0 0 0]\n [0 0 0 0 0 0 0 0 0 0 0 0 0 0 0 0]\n [0 0 0 0 0 0 3 0 0 0 0 0 0 0 0 0]\n [0 0 0 0 0 0 3 0 0 0 0 0 0 0 0 0]\n [0 0 0 0 0 0 0 0 0 0 0 0 0 1 1 1]\n [1 1 1 1 1 1 1 1 1 1 1 0 0 0 0 0]\n [1 1 1 1 1 1 1 1 1 1 1 0 0 0 0 0]]'
p120
I11
tp121
I0
s(g108
I7
tp122
F-0.25
s(g18
I9
tp123
I0
s(g90
I5
tp124
I0
s(S'[[0 0 0 0 0 0 0 0 0 0 0 0 0 0 0 0]\n [0 0 0 0 0 0 0 0 0 0 0 0 0 0 0 0]\n [0 0 0 0 0 0 0 0 0 0 0 0 0 0 0 0]\n [0 0 0 0 0 0 0 0 0 0 0 0 0 0 0 0]\n [0 0 0 0 0 0 0 0 0 0 0 0 0 0 0 0]\n [0 0 0 0 0 0 0 0 0 0 0 0 0 0 0 0]\n [0 0 0 0 0 0 0 0 0 0 0 0 0 0 0 0]\n [0 0 0 0 0 0 0 0 0 0 0 0 0 0 0 0]\n [0 0 0 0 0 0 0 3 0 0 0 0 0 0 0 0]\n [0 0 0 0 0 0 0 3 0 0 0 0 0 0 0 0]\n [0 0 0 0 0 0 0 0 0 0 0 0 0 0 0 1]\n [1 1 1 1 1 1 1 1 1 1 1 1 1 0 0 0]\n [1 1 1 1 1 1 1 1 1 1 1 1 1 0 0 0]]'
p125
I4
tp126
F-0.25
s(S'[[0 0 0 0 0 0 0 0 0 0 0 0 0 0 0 0]\n [0 0 0 0 0 0 0 0 0 0 0 0 0 0 0 0]\n [0 0 0 0 0 0 0 0 0 0 0 0 0 0 0 0]\n [0 0 0 0 0 0 0 0 0 0 0 0 0 0 0 0]\n [0 0 0 0 0 0 0 0 0 0 0 0 0 0 0 0]\n [0 0 0 0 0 0 0 0 0 0 0 0 0 0 0 0]\n [0 0 0 0 0 0 0 0 0 0 0 0 0 0 0 0]\n [0 0 0 0 0 0 0 0 0 0 0 0 0 0 0 0]\n [0 0 0 3 0 0 0 0 0 0 0 0 0 0 0 0]\n [0 0 0 3 0 0 0 0 0 0 0 0 0 0 0 0]\n [0 0 0 0 0 0 0 0 0 0 0 0 0 0 0 0]\n [1 1 1 1 1 1 1 1 1 1 1 1 1 1 1 1]\n [1 1 1 1 1 1 1 1 1 1 1 1 1 1 1 1]]'
p127
I10
tp128
I0
s(S'[[0 0 0 0 0 0 0 0 0 0 0 0 0 0 0 0]\n [0 0 0 0 0 0 0 0 0 0 0 0 0 0 0 0]\n [0 0 0 0 0 0 0 0 0 0 0 0 0 0 0 0]\n [0 0 0 0 0 0 0 0 0 0 0 0 0 0 0 0]\n [0 0 0 0 0 0 0 0 0 0 0 0 0 0 0 0]\n [0 0 0 0 0 0 0 0 0 0 0 0 0 0 0 0]\n [0 0 0 0 0 0 0 0 0 0 0 0 0 0 0 0]\n [0 0 0 0 0 0 0 0 0 0 0 0 0 0 0 0]\n [0 0 0 0 0 0 0 0 0 0 0 0 0 0 0 0]\n [0 0 3 3 0 0 0 0 0 0 0 0 0 0 0 0]\n [0 0 0 0 0 0 0 0 0 0 0 0 0 0 0 0]\n [1 1 1 1 1 1 1 1 1 1 1 1 1 1 1 1]\n [1 1 1 1 1 1 1 1 1 1 1 1 1 1 1 1]]'
p129
I7
tp130
I0
s(g82
I3
tp131
F0.75
s(g106
I7
tp132
I0
s(S'[[0 0 0 0 0 0 0 0 0 0 0 0 0 0 0 0]\n [0 0 0 0 0 0 0 0 0 0 0 0 0 0 0 0]\n [0 0 0 0 0 0 0 0 0 0 0 0 0 0 0 0]\n [0 0 0 0 0 0 0 0 0 0 0 0 0 0 0 0]\n [0 0 0 0 0 0 0 0 0 0 0 0 0 0 0 0]\n [0 0 0 0 0 0 0 0 0 0 0 0 0 0 0 0]\n [0 0 0 0 0 0 0 0 0 0 0 0 0 0 0 0]\n [0 0 0 0 0 0 0 0 0 0 0 0 0 0 0 1]\n [0 0 0 0 0 0 0 0 0 0 0 0 0 0 0 0]\n [0 0 0 0 0 0 0 0 0 0 0 0 0 0 0 0]\n [0 0 0 0 0 0 0 3 0 1 1 1 1 0 0 0]\n [1 1 1 1 1 1 1 0 0 0 0 0 0 0 0 0]\n [1 1 1 1 1 1 1 0 0 0 0 0 0 0 0 0]]'
p133
I11
tp134
I0
s(g108
I13
tp135
F-0.2448448455725232
s(g101
I10
tp136
I0
s(g56
I8
tp137
I0
s(g74
I13
tp138
I0
s(S'[[0 0 0 0 0 0 0 0 0 0 0 0 0 0 0 0]\n [0 0 0 0 0 0 0 0 0 0 0 0 0 0 0 0]\n [0 0 0 0 0 0 0 0 0 0 0 0 0 0 0 0]\n [0 0 0 0 0 0 0 0 0 0 0 0 0 0 0 0]\n [0 0 0 0 0 0 0 0 0 0 0 0 0 0 0 0]\n [0 0 0 0 0 0 0 0 0 0 0 0 0 0 0 0]\n [0 0 0 0 0 0 0 0 0 0 0 0 0 0 0 0]\n [0 0 0 0 0 0 0 0 0 0 0 0 0 0 0 0]\n [0 0 0 0 0 0 0 0 0 0 0 0 0 0 0 0]\n [0 0 0 0 0 0 0 0 0 0 0 0 0 0 0 0]\n [0 0 0 3 0 0 0 0 0 0 0 0 0 0 0 0]\n [1 1 1 1 1 1 1 1 1 1 1 1 1 1 1 1]\n [1 1 1 1 1 1 1 1 1 1 1 1 1 1 1 1]]'
p139
I1
tp140
F0.0
s(S'[[0 0 0 0 0 0 0 0 0 0 0 0 0 0 0 0]\n [0 0 0 0 0 0 0 0 0 0 0 0 0 0 0 0]\n [0 0 0 0 0 0 0 0 0 0 0 0 0 0 0 0]\n [0 0 0 0 0 0 0 0 0 0 0 0 0 0 0 0]\n [0 0 0 0 0 0 0 0 0 0 0 0 0 0 0 0]\n [0 0 0 0 0 0 0 0 0 0 0 0 0 0 0 0]\n [0 0 0 0 0 0 0 0 0 0 0 0 0 0 0 0]\n [0 0 0 0 0 0 0 0 0 0 0 0 0 0 0 0]\n [0 0 0 0 0 0 0 0 0 0 0 0 0 0 0 0]\n [0 0 0 0 0 0 3 0 0 0 0 0 0 0 0 0]\n [0 0 0 0 0 0 0 0 0 0 0 0 0 0 1 1]\n [1 1 1 1 1 1 1 1 1 1 1 1 0 0 0 0]\n [1 1 1 1 1 1 1 1 1 1 1 1 0 0 0 0]]'
p141
I1
tp142
F0.96875
s(g113
I10
tp143
I0
s(S'[[0 0 0 0 0 0 0 0 0 0 0 0 0 0 0 0]\n [0 0 0 0 0 0 0 0 0 0 0 0 0 0 0 0]\n [0 0 0 0 0 0 0 0 0 0 0 0 0 0 0 0]\n [0 0 0 0 0 0 0 0 0 0 0 0 0 0 0 0]\n [0 0 0 0 0 0 0 0 0 0 0 0 0 0 0 0]\n [0 0 0 0 0 0 0 0 0 0 0 0 0 0 0 0]\n [0 0 0 0 0 0 0 0 0 0 0 0 0 0 0 0]\n [0 0 0 0 0 0 0 0 0 0 0 0 0 0 0 0]\n [0 0 3 0 0 0 0 0 0 0 0 0 0 0 0 0]\n [0 0 0 0 0 0 0 0 0 0 0 0 0 0 0 0]\n [0 0 0 0 0 0 0 0 0 0 0 0 0 0 0 0]\n [1 1 1 1 1 1 1 1 1 1 1 1 1 1 1 1]\n [1 1 1 1 1 1 1 1 1 1 1 1 1 1 1 1]]'
p144
I13
tp145
F0.0
s(g117
I2
tp146
I0
s(S'[[0 0 0 0 0 0 0 0 0 0 0 0 0 0 0 0]\n [0 0 0 0 0 0 0 0 0 0 0 0 0 0 0 0]\n [0 0 0 0 0 0 0 0 0 0 0 0 0 0 0 0]\n [0 0 0 0 0 0 0 0 0 0 0 0 0 0 0 0]\n [0 0 0 0 0 0 0 0 0 0 0 0 0 0 0 0]\n [0 0 0 0 0 0 0 0 0 0 0 0 0 0 0 0]\n [0 0 0 0 0 0 0 0 0 0 0 0 0 0 0 0]\n [0 0 0 0 0 0 0 0 0 0 0 0 0 0 0 1]\n [0 0 0 0 0 0 3 0 0 0 0 0 0 0 0 0]\n [0 0 0 0 0 0 0 0 0 0 0 0 0 0 0 0]\n [0 0 0 0 0 0 0 0 0 1 1 1 1 0 0 0]\n [1 1 1 1 1 1 1 0 0 0 0 0 0 0 0 0]\n [1 1 1 1 1 1 1 0 0 0 0 0 0 0 0 0]]'
p147
I3
tp148
I0
s(S'[[0 0 0 0 0 0 0 0 0 0 0 0 0 0 0 0]\n [0 0 0 0 0 0 0 0 0 0 0 0 0 0 0 0]\n [0 0 0 0 0 0 0 0 0 0 0 0 0 0 0 0]\n [0 0 0 0 0 0 0 0 0 0 0 0 0 0 0 0]\n [0 0 0 0 0 0 0 0 0 0 0 0 0 0 0 0]\n [0 0 0 0 0 0 3 3 0 0 0 0 0 0 0 0]\n [0 0 0 0 0 0 0 0 0 0 0 0 0 0 0 0]\n [0 0 0 0 0 0 0 0 0 0 0 0 0 0 0 0]\n [0 0 0 0 0 0 0 0 0 0 0 0 0 0 0 0]\n [0 0 0 0 0 0 0 0 0 0 0 0 0 0 0 0]\n [0 0 0 0 0 0 0 0 0 0 0 0 0 0 0 0]\n [1 1 1 1 1 1 1 1 1 1 1 1 1 1 1 0]\n [1 1 1 1 1 1 1 1 1 1 1 1 1 1 1 0]]'
p149
I2
tp150
I0
s(S'[[0 0 0 0 0 0 0 0 0 0 0 0 0 0 0 0]\n [0 0 0 0 0 0 0 0 0 0 0 0 0 0 0 0]\n [0 0 0 0 0 0 0 0 0 0 0 0 0 0 0 0]\n [0 0 0 0 0 0 0 0 0 0 0 0 0 0 0 0]\n [0 0 0 0 0 0 0 0 0 0 0 0 0 0 0 0]\n [0 0 0 0 0 0 0 0 0 0 0 0 0 0 0 0]\n [0 0 0 0 0 0 0 0 0 0 0 0 0 0 0 0]\n [0 0 0 0 0 0 0 0 0 0 0 0 0 0 0 0]\n [0 3 0 0 0 0 0 0 0 0 0 0 0 0 0 0]\n [0 3 0 0 0 0 0 0 0 0 0 0 0 0 0 0]\n [0 0 0 0 0 0 0 0 0 0 0 0 0 0 0 0]\n [1 1 1 1 1 1 1 1 1 1 1 1 1 1 1 1]\n [1 1 1 1 1 1 1 1 1 1 1 1 1 1 1 1]]'
p151
I8
tp152
I0
s(g120
I2
tp153
I0
s(g104
I6
tp154
I0
s(S'[[0 0 0 0 0 0 0 0 0 0 0 0 0 0 0 0]\n [0 0 0 0 0 0 0 0 0 0 0 0 0 0 0 0]\n [0 0 0 0 0 0 0 0 0 0 0 0 0 0 0 0]\n [0 0 0 0 0 0 0 0 0 0 0 0 0 0 0 0]\n [0 0 0 0 0 0 0 0 0 0 0 0 0 0 0 0]\n [0 0 0 0 0 0 0 0 0 0 0 0 0 0 0 0]\n [0 0 0 0 0 0 0 0 0 0 0 0 0 0 0 0]\n [0 3 0 0 0 0 0 0 0 0 0 0 0 0 0 0]\n [0 3 0 0 0 0 0 0 0 0 0 0 0 0 0 0]\n [0 0 0 0 0 0 0 0 0 0 0 0 0 0 0 0]\n [0 0 0 0 0 0 0 0 0 0 0 0 0 0 0 0]\n [1 1 1 1 1 1 1 1 1 1 1 1 1 1 1 1]\n [1 1 1 1 1 1 1 1 1 1 1 1 1 1 1 1]]'
p155
I11
tp156
I0
s(g127
I3
tp157
I0
s(S'[[0 0 0 0 0 0 0 0 0 0 0 0 0 0 0 0]\n [0 0 0 0 0 0 0 0 0 0 0 0 0 0 0 0]\n [0 0 0 0 0 0 0 0 0 0 0 0 0 0 0 0]\n [0 0 0 0 0 0 0 0 0 0 0 0 0 0 0 0]\n [0 0 0 0 0 0 0 0 0 0 0 0 0 0 0 0]\n [0 0 0 0 0 0 0 0 0 0 0 0 0 0 0 0]\n [0 0 0 0 0 0 0 0 0 0 0 0 0 0 0 0]\n [0 0 0 0 0 0 0 0 0 0 0 0 0 0 0 0]\n [0 0 0 0 0 0 0 0 0 0 0 0 0 0 0 0]\n [0 0 0 0 0 0 3 0 0 0 0 0 0 0 0 0]\n [0 0 0 0 0 0 0 0 0 0 0 0 0 0 0 0]\n [1 1 1 1 1 1 1 1 1 1 1 1 1 1 1 1]\n [1 1 1 1 1 1 1 1 1 1 1 1 1 1 1 1]]'
p158
I8
tp159
I0
s(S'[[0 0 0 0 0 0 0 0 0 0 0 0 0 0 0 0]\n [0 0 0 0 0 0 0 0 0 0 0 0 0 0 0 0]\n [0 0 0 0 0 0 0 0 0 0 0 0 0 0 0 0]\n [0 0 0 0 0 0 0 0 0 0 0 0 0 0 0 0]\n [0 0 0 0 0 0 0 0 0 0 0 0 0 0 0 0]\n [0 0 0 0 0 0 0 0 0 0 0 0 0 0 0 0]\n [0 0 0 0 0 0 0 0 0 0 0 0 0 0 0 0]\n [0 0 0 0 0 0 0 0 0 0 0 0 0 0 0 0]\n [0 0 0 0 0 0 0 0 0 0 0 0 0 0 0 0]\n [0 0 0 0 0 0 0 0 0 0 0 0 0 0 0 0]\n [3 0 0 0 0 0 0 0 0 0 0 0 0 0 0 0]\n [1 1 1 1 1 1 1 1 1 1 1 1 1 1 1 1]\n [1 1 1 1 1 1 1 1 1 1 1 1 1 1 1 1]]'
p160
I13
tp161
I0
s(g149
I0
tp162
I0
s(g133
I12
tp163
I0
s(S'[[0 0 0 0 0 0 0 0 0 0 0 0 0 0 0 0]\n [0 0 0 0 0 0 0 0 0 0 0 0 0 0 0 0]\n [0 0 0 0 0 0 0 0 0 0 0 0 0 0 0 0]\n [0 0 0 0 0 0 0 0 0 0 0 0 0 0 0 0]\n [0 0 0 0 0 0 0 0 0 0 0 0 0 0 0 0]\n [0 0 0 0 0 0 0 0 0 0 0 0 0 0 0 0]\n [0 0 0 0 0 0 0 0 0 0 0 0 0 0 0 0]\n [0 0 0 0 0 0 0 0 0 0 0 0 0 0 0 0]\n [0 0 3 0 0 0 0 0 0 0 0 0 0 0 0 0]\n [0 0 3 0 0 0 0 0 0 0 0 0 0 0 0 0]\n [0 0 0 0 0 0 0 0 0 0 0 0 0 0 0 0]\n [1 1 1 1 1 1 1 1 1 1 1 1 1 1 1 1]\n [1 1 1 1 1 1 1 1 1 1 1 1 1 1 1 1]]'
p164
I7
tp165
I0
s(S'[[0 0 0 0 0 0 0 0 0 0 0 0 0 0 0 0]\n [0 0 0 0 0 0 0 0 0 0 0 0 0 0 0 0]\n [0 0 0 0 0 0 0 0 0 0 0 0 0 0 0 0]\n [0 0 0 0 0 0 0 0 0 0 0 0 0 0 0 0]\n [0 0 0 0 0 0 0 0 0 0 0 0 0 0 0 0]\n [0 0 0 0 0 0 0 0 0 0 0 0 0 0 0 0]\n [0 0 0 0 0 0 0 0 0 0 0 0 0 0 0 0]\n [0 0 0 0 0 0 0 0 0 0 0 0 0 0 0 0]\n [0 0 0 0 0 0 0 0 0 0 0 0 0 0 0 0]\n [0 0 0 0 0 0 0 0 0 0 0 0 0 0 0 0]\n [0 0 0 0 0 0 3 0 0 0 0 0 1 1 1 1]\n [1 1 1 1 1 1 1 1 1 1 0 0 0 0 0 0]\n [1 1 1 1 1 1 1 1 1 1 0 0 0 0 0 0]]'
p166
I6
tp167
I0
s(S'[[0 0 0 0 0 0 0 0 0 0 0 0 0 0 0 0]\n [0 0 0 0 0 0 0 0 0 0 0 0 0 0 0 0]\n [0 0 0 0 0 0 0 0 0 0 0 0 0 0 0 0]\n [0 0 0 0 0 0 0 0 0 0 0 0 0 0 0 1]\n [0 0 0 0 0 0 0 0 0 0 0 0 0 0 0 0]\n [0 0 0 0 0 0 0 0 0 0 0 0 0 0 0 0]\n [0 0 0 0 0 0 0 0 0 0 0 0 0 0 0 0]\n [0 0 0 0 0 0 0 0 0 0 0 0 0 1 1 1]\n [0 0 0 0 0 0 0 0 0 0 0 0 0 0 0 0]\n [0 0 0 0 0 0 0 0 0 0 0 0 0 0 0 0]\n [0 0 0 0 0 0 0 1 1 1 1 0 0 0 0 0]\n [1 1 1 1 1 0 0 0 0 0 0 0 0 0 0 0]\n [1 1 1 1 1 0 0 0 0 0 0 0 0 0 0 0]]'
p168
I0
tp169
I0
s(g74
I4
tp170
I0
s(g139
I8
tp171
F-0.25
s(S'[[0 0 0 0 0 0 0 0 0 0 0 0 0 0 0 0]\n [0 0 0 0 0 0 0 0 0 0 0 0 0 0 0 0]\n [0 0 0 0 0 0 0 0 0 0 0 0 0 0 0 0]\n [0 0 0 0 0 0 0 0 0 0 0 0 0 0 0 0]\n [0 0 0 0 0 0 0 0 0 0 0 0 0 0 0 0]\n [0 0 0 0 0 0 0 0 0 0 0 0 0 0 0 0]\n [0 0 0 0 0 0 0 3 0 0 0 0 0 0 0 0]\n [0 0 0 0 0 0 0 0 0 0 0 0 0 0 0 0]\n [0 0 0 0 0 0 0 0 0 0 0 0 0 0 0 0]\n [0 0 0 0 0 0 0 0 0 0 0 0 0 0 0 0]\n [0 0 0 0 0 0 0 0 0 0 0 0 0 0 0 0]\n [1 1 1 1 1 1 1 1 1 1 1 1 1 1 0 0]\n [1 1 1 1 1 1 1 1 1 1 1 1 1 1 0 0]]'
p172
I1
tp173
I0
s(g141
I8
tp174
I0
s(g113
I13
tp175
I0
s(g144
I4
tp176
F-0.45
s(g147
I4
tp177
I0
s(S'[[0 0 0 0 0 0 0 0 0 0 0 0 0 0 0 0]\n [0 0 0 0 0 0 0 0 0 0 0 0 0 0 0 0]\n [0 0 0 0 0 0 0 0 0 0 0 0 0 0 0 0]\n [0 0 0 0 0 0 0 0 0 0 0 0 0 0 0 0]\n [0 0 0 0 0 0 0 0 0 0 0 0 0 0 0 0]\n [0 0 0 0 0 0 0 0 0 0 0 0 0 0 0 0]\n [0 0 0 0 0 0 0 0 0 0 0 0 0 0 0 0]\n [0 0 0 0 0 0 0 0 0 0 0 0 0 0 0 0]\n [0 0 0 0 0 0 0 0 0 0 0 0 0 0 0 0]\n [0 3 3 0 0 0 0 0 0 0 0 0 0 0 0 0]\n [0 0 0 0 0 0 0 0 0 0 0 0 0 0 0 0]\n [1 1 1 1 1 1 1 1 1 1 1 1 1 1 1 1]\n [1 1 1 1 1 1 1 1 1 1 1 1 1 1 1 1]]'
p178
I13
tp179
I0
s(g151
I1
tp180
I0
s(S'[[0 0 0 0 0 0 0 0 0 0 0 0 0 0 0 0]\n [0 0 0 0 0 0 0 0 0 0 0 0 0 0 0 0]\n [0 0 0 0 0 0 0 0 0 0 0 0 0 0 0 0]\n [0 0 0 0 0 0 0 0 0 0 0 0 0 0 0 0]\n [0 0 0 0 0 0 0 0 0 0 0 0 0 0 0 0]\n [0 0 0 0 0 0 0 0 0 0 0 0 0 0 0 0]\n [0 0 0 0 0 0 0 0 0 0 0 0 0 0 0 0]\n [0 0 0 0 0 0 0 0 0 0 0 0 0 0 1 1]\n [0 0 0 0 0 0 0 0 0 0 0 0 0 0 0 0]\n [0 0 0 0 0 0 0 0 0 0 0 0 0 0 0 0]\n [0 0 0 0 0 0 0 0 1 1 1 1 0 0 0 0]\n [1 1 1 1 1 1 0 0 0 0 0 0 0 0 0 0]\n [1 1 1 1 1 1 0 3 0 0 0 0 0 0 0 0]]'
p181
I5
tp182
I0
s(S'[[0 0 0 0 0 0 0 0 0 0 0 0 0 0 0 0]\n [0 0 0 0 0 0 0 0 0 0 0 0 0 0 0 0]\n [0 0 0 0 0 0 0 0 0 0 0 0 0 0 0 0]\n [0 0 0 0 0 0 0 0 0 0 0 0 0 0 0 0]\n [0 0 0 0 0 0 0 0 0 0 0 0 0 0 0 0]\n [0 0 0 0 0 0 0 0 0 0 0 0 0 0 0 0]\n [0 0 0 0 0 0 0 0 0 0 0 0 0 0 0 0]\n [0 0 0 0 0 0 0 0 0 0 0 0 0 0 0 0]\n [0 0 0 0 0 0 0 0 0 0 0 0 0 0 0 0]\n [0 0 0 0 0 0 0 0 0 0 0 0 0 0 0 0]\n [0 0 0 0 0 3 3 0 0 0 0 0 0 1 1 1]\n [1 1 1 1 1 1 1 1 1 1 1 0 0 0 0 0]\n [1 1 1 1 1 1 1 1 1 1 1 0 0 0 0 0]]'
p183
I10
tp184
I0
s(g155
I4
tp185
I0
s(g127
I4
tp186
F-0.25
s(S'[[0 0 0 0 0 0 0 0 0 0 0 0 0 0 0 0]\n [0 0 0 0 0 0 0 0 0 0 0 0 0 0 0 0]\n [0 0 0 0 0 0 0 0 0 0 0 0 0 0 0 0]\n [0 0 0 0 0 0 0 0 0 0 0 0 0 0 0 0]\n [0 0 0 0 0 0 0 0 0 0 0 0 0 0 0 0]\n [0 0 0 0 0 0 0 0 0 0 0 0 0 0 0 0]\n [0 0 0 0 0 0 0 0 0 0 0 0 0 0 0 0]\n [0 0 0 0 0 0 0 0 0 0 0 0 0 0 0 0]\n [0 0 0 0 0 0 0 0 0 0 0 0 0 0 0 0]\n [0 0 0 0 0 0 3 0 0 0 0 0 0 0 0 0]\n [0 0 0 0 0 0 3 0 0 0 0 0 0 1 1 1]\n [1 1 1 1 1 1 1 1 1 1 1 0 0 0 0 0]\n [1 1 1 1 1 1 1 1 1 1 1 0 0 0 0 0]]'
p187
I6
tp188
I0
s(g158
I3
tp189
I0
s(g160
I4
tp190
I0
s(S'[[0 0 0 0 0 0 0 0 0 0 0 0 0 0 0 0]\n [0 0 0 0 0 0 0 0 0 0 0 0 0 0 0 0]\n [0 0 0 0 0 0 0 0 0 0 0 0 0 0 0 0]\n [0 0 0 0 0 0 0 0 0 0 0 0 0 0 0 0]\n [0 0 0 0 0 0 0 0 0 0 0 0 0 0 0 0]\n [0 0 0 0 0 0 0 0 0 0 0 0 0 0 0 0]\n [0 0 0 0 0 0 0 0 0 0 0 0 0 0 0 0]\n [0 0 0 0 0 0 0 0 0 0 0 0 0 0 0 0]\n [0 0 0 0 0 0 0 0 0 0 0 0 0 0 0 0]\n [0 0 0 0 0 0 3 0 0 0 0 0 0 0 0 0]\n [0 0 0 0 0 0 0 0 0 0 1 1 1 1 0 0]\n [1 1 1 1 1 1 1 1 0 0 0 0 0 0 0 0]\n [1 1 1 1 1 1 1 1 0 0 0 0 0 0 0 0]]'
p191
I12
tp192
I0
s(S'[[0 0 0 0 0 0 0 0 0 0 0 0 0 0 0 0]\n [0 0 0 0 0 0 0 0 0 0 0 0 0 0 0 0]\n [0 0 0 0 0 0 0 0 0 0 0 0 0 0 0 0]\n [0 0 0 0 0 0 0 0 0 0 0 0 0 0 0 0]\n [0 0 0 0 0 0 0 0 0 0 0 0 0 0 0 0]\n [0 0 0 0 0 0 0 0 0 0 0 0 0 0 0 0]\n [0 0 0 0 0 0 0 0 0 0 0 0 0 0 0 0]\n [0 0 0 0 0 0 0 0 0 0 0 0 0 0 0 0]\n [0 0 3 3 0 0 0 0 0 0 0 0 0 0 0 0]\n [0 0 0 0 0 0 0 0 0 0 0 0 0 0 0 0]\n [0 0 0 0 0 0 0 0 0 0 0 0 0 0 0 0]\n [1 1 1 1 1 1 1 1 1 1 1 1 1 1 1 1]\n [1 1 1 1 1 1 1 1 1 1 1 1 1 1 1 1]]'
p193
I12
tp194
I0
s(S'[[0 0 0 0 0 0 0 0 0 0 0 0 0 0 0 0]\n [0 0 0 0 0 0 0 0 0 0 0 0 0 0 0 0]\n [0 0 0 0 0 0 0 0 0 0 0 0 0 0 0 0]\n [0 0 0 0 0 0 0 0 0 0 0 0 0 0 0 0]\n [0 0 0 0 0 0 0 0 0 0 0 0 0 0 0 0]\n [0 0 0 0 0 0 0 0 0 0 0 0 0 0 0 0]\n [0 0 0 0 0 0 0 0 0 0 0 0 0 0 0 0]\n [0 0 0 0 0 0 0 0 0 0 0 0 0 0 1 1]\n [0 0 0 0 0 0 0 0 0 0 0 0 0 0 0 0]\n [0 0 0 0 0 0 0 0 0 0 0 0 0 0 0 0]\n [0 0 0 0 0 0 0 0 1 1 1 1 0 0 0 0]\n [1 1 1 1 1 1 0 3 0 0 0 0 0 0 0 0]\n [1 1 1 1 1 1 0 0 0 0 0 0 0 0 0 0]]'
p195
I7
tp196
I0
s(S'[[0 0 0 0 0 0 0 0 0 0 0 0 0 0 0 0]\n [0 0 0 0 0 0 0 0 0 0 0 0 0 0 0 0]\n [0 0 0 0 0 0 0 0 0 0 0 0 0 0 0 0]\n [0 0 0 0 0 0 0 0 0 0 0 0 0 0 0 0]\n [0 0 0 0 0 0 0 0 0 0 0 0 0 0 0 0]\n [0 0 0 0 0 0 0 0 0 0 0 0 0 0 0 0]\n [0 0 0 0 0 0 0 0 0 0 0 0 0 0 0 0]\n [0 0 0 0 0 0 0 0 0 0 0 0 0 0 0 0]\n [0 0 0 0 0 0 0 0 0 0 0 0 0 0 0 0]\n [0 0 0 0 3 0 0 0 0 0 0 0 0 0 0 0]\n [0 0 0 0 0 0 0 0 0 0 0 0 0 0 0 0]\n [1 1 1 1 1 1 1 1 1 1 1 1 1 1 1 1]\n [1 1 1 1 1 1 1 1 1 1 1 1 1 1 1 1]]'
p197
I0
tp198
I0
s(g133
I5
tp199
I0
s(g168
I9
tp200
I0
s(g74
I3
tp201
I0
s(g172
I8
tp202
I0
s(g144
I3
tp203
I0
s(g6
I8
tp204
I0
s(g147
I13
tp205
I0
s(g178
I10
tp206
I0
s(g10
I11
tp207
I0
s(S'[[0 0 0 0 0 0 0 0 0 0 0 0 0 0 0 0]\n [0 0 0 0 0 0 0 0 0 0 0 0 0 0 0 0]\n [0 0 0 0 0 0 0 0 0 0 0 0 0 0 0 0]\n [0 0 0 0 0 0 0 0 0 0 0 0 0 0 0 0]\n [0 0 0 0 0 0 0 0 0 0 0 0 0 0 0 0]\n [0 0 0 0 0 0 0 3 0 0 0 0 0 0 0 0]\n [0 0 0 0 0 0 0 0 0 0 0 0 0 0 0 0]\n [0 0 0 0 0 0 0 0 0 0 0 0 0 0 0 0]\n [0 0 0 0 0 0 0 0 0 0 0 0 0 0 0 0]\n [0 0 0 0 0 0 0 0 0 0 0 0 0 0 0 0]\n [0 0 0 0 0 0 0 0 0 0 0 0 0 0 0 0]\n [1 1 1 1 1 1 1 1 1 1 1 1 1 1 1 0]\n [1 1 1 1 1 1 1 1 1 1 1 1 1 1 1 0]]'
p208
I10
tp209
I0
s(g12
I12
tp210
I0
s(g183
I1
tp211
I0
s(S'[[0 0 0 0 0 0 0 0 0 0 0 0 0 0 0 0]\n [0 0 0 0 0 0 0 0 0 0 0 0 0 0 0 0]\n [0 0 0 0 0 0 0 0 0 0 0 0 0 0 0 0]\n [0 0 0 0 0 0 0 0 0 0 0 0 0 0 0 0]\n [0 0 0 0 0 0 0 0 0 0 0 0 0 0 0 0]\n [0 0 0 0 0 0 0 0 0 0 0 0 0 0 0 0]\n [0 0 0 0 0 0 0 0 0 0 0 0 0 0 0 0]\n [0 0 0 0 0 0 0 0 0 0 0 0 0 0 0 0]\n [0 0 0 0 0 0 0 0 0 0 0 0 0 0 0 0]\n [0 0 0 3 0 0 0 0 0 0 0 0 0 0 0 0]\n [0 0 0 0 0 0 0 0 0 0 0 0 0 0 0 0]\n [1 1 1 1 1 1 1 1 1 1 1 1 1 1 1 1]\n [1 1 1 1 1 1 1 1 1 1 1 1 1 1 1 1]]'
p212
I1
tp213
F-0.08924404296874999
s(S'[[0 0 0 0 0 0 0 0 0 0 0 0 0 0 0 0]\n [0 0 0 0 0 0 0 0 0 0 0 0 0 0 0 0]\n [0 0 0 0 0 0 0 0 0 0 0 0 0 0 0 0]\n [0 0 0 0 0 0 0 0 0 0 0 0 0 0 0 0]\n [0 0 0 0 0 0 0 0 0 0 0 0 0 0 0 0]\n [0 0 0 0 0 0 0 0 0 0 0 0 0 0 0 0]\n [0 0 0 0 0 0 0 0 0 0 0 0 0 0 0 0]\n [0 0 0 0 0 0 0 0 0 0 0 0 0 0 0 0]\n [0 0 0 0 0 0 0 0 0 0 0 0 0 0 0 0]\n [0 0 0 0 0 0 0 0 0 0 0 0 0 0 0 0]\n [0 0 0 0 0 0 0 0 0 0 0 0 0 0 0 0]\n [0 0 0 0 0 0 0 0 0 0 0 0 0 0 0 0]\n [0 0 0 0 0 0 0 0 0 0 0 0 0 0 0 0]]'
p214
I3
tp215
I0
s(g187
I9
tp216
I0
s(g160
I3
tp217
I0
s(g24
I0
tp218
I0
s(g193
I5
tp219
I0
s(g26
I2
tp220
I0
s(g34
I13
tp221
F-0.25
s(S'[[0 0 0 0 0 0 0 0 0 0 0 0 0 0 0 0]\n [0 0 0 0 0 0 0 0 0 0 0 0 0 0 0 0]\n [0 0 0 0 0 0 0 0 0 0 0 0 0 0 0 0]\n [0 0 0 0 0 0 0 0 0 0 0 0 0 0 0 0]\n [0 0 0 0 0 0 0 0 0 0 0 0 0 0 0 0]\n [0 0 0 0 0 0 0 0 0 0 0 0 0 0 0 0]\n [0 0 0 0 0 0 0 0 0 0 0 0 0 0 0 0]\n [0 0 0 0 0 0 0 0 0 0 0 0 0 0 0 0]\n [0 0 0 0 0 0 3 0 0 0 0 0 0 0 0 0]\n [0 0 0 0 0 0 3 0 0 0 0 0 0 0 0 0]\n [0 0 0 0 0 0 0 0 0 0 0 0 0 0 0 1]\n [1 1 1 1 1 1 1 1 1 1 1 1 1 0 0 0]\n [1 1 1 1 1 1 1 1 1 1 1 1 1 0 0 0]]'
p222
I7
tp223
I0
s(S'[[0 0 0 0 0 0 0 0 0 0 0 0 0 0 0 0]\n [0 0 0 0 0 0 0 0 0 0 0 0 0 0 0 0]\n [0 0 0 0 0 0 0 0 0 0 0 0 0 0 0 0]\n [0 0 0 0 0 0 0 0 0 0 0 0 0 0 0 0]\n [0 0 0 0 0 0 0 0 0 0 0 0 0 0 0 0]\n [0 0 0 0 0 0 0 0 0 0 0 0 0 0 0 0]\n [0 0 0 0 0 0 0 0 0 0 0 0 0 0 0 0]\n [0 0 0 0 0 0 0 0 0 0 0 0 0 0 0 0]\n [0 0 0 0 0 0 0 0 0 0 0 0 0 0 0 0]\n [0 0 0 0 0 0 0 0 0 0 0 0 0 0 0 0]\n [0 0 0 0 0 3 3 0 0 0 0 0 1 1 1 1]\n [1 1 1 1 1 1 1 1 1 1 0 0 0 0 0 0]\n [1 1 1 1 1 1 1 1 1 1 0 0 0 0 0 0]]'
p224
I7
tp225
I0
s(g104
I2
tp226
I0
s(g52
I6
tp227
I0
s(g4
I11
tp228
I0
s(g6
I7
tp229
I0
s(g8
I3
tp230
I0
s(g178
I3
tp231
F0.25
s(g10
I2
tp232
F-0.5125
s(g208
I1
tp233
I0
s(g12
I11
tp234
I0
s(g14
I5
tp235
I0
s(g212
I8
tp236
F1.645635939328418
s(g16
I5
tp237
I0
s(g214
I8
tp238
I0
s(g22
I6
tp239
F0.0
s(g70
I11
tp240
I0
s(g72
I2
tp241
I0
s(g193
I2
tp242
I0
s(g26
I9
tp243
I0
s(g28
I7
tp244
F-0.09630319260204843
s(g86
I1
tp245
F0.23093824301757812
s(g34
I2
tp246
I0
s(g101
I0
tp247
I0
s(g38
I4
tp248
I0
s(g40
I11
tp249
I0
s(g42
I0
tp250
F0.0006945111095634061
s(g46
I9
tp251
I0
s(g48
I7
tp252
I0
s(g166
I3
tp253
I0
s(g50
I10
tp254
I0
s(g52
I13
tp255
F1.5344843750000001
s(g54
I7
tp256
I0
s(g4
I0
tp257
I0
s(g8
I4
tp258
I0
s(g61
I10
tp259
I0
s(g10
I5
tp260
I0
s(g12
I2
tp261
I0
s(g63
I12
tp262
F-0.1991118984375
s(g14
I12
tp263
I0
s(g16
I10
tp264
I0
s(g65
I11
tp265
I0
s(g197
I12
tp266
I0
s(g20
I9
tp267
F-0.75
s(g70
I2
tp268
I0
s(g104
I3
tp269
I0
s(g72
I11
tp270
I0
s(g30
I13
tp271
F-0.47875
s(g32
I5
tp272
F-0.5
s(g36
I9
tp273
I0
s(g38
I13
tp274
I0
s(g40
I4
tp275
I0
s(g106
I0
tp276
I0
s(g42
I11
tp277
F0.10945330328411523
s(g46
I2
tp278
I0
s(g84
I5
tp279
I0
s(g50
I5
tp280
I0
s(g58
I5
tp281
I0
s(g8
I13
tp282
I0
s(g61
I1
tp283
I0
s(g63
I5
tp284
I0
s(g14
I11
tp285
I0
s(g93
I7
tp286
I0
s(g90
I2
tp287
I0
s(g65
I2
tp288
I0
s(g96
I13
tp289
I0
s(g20
I6
tp290
I0
s(g70
I5
tp291
F0.75
s(g30
I2
tp292
I0
s(S'[[0 0 0 0 0 0 0 0 0 0 0 0 0 0 0 0]\n [0 0 0 0 0 0 0 0 0 0 0 0 0 0 0 0]\n [0 0 0 0 0 0 0 0 0 0 0 0 0 0 0 0]\n [0 0 0 0 0 0 0 0 0 0 0 0 0 0 0 0]\n [0 0 0 0 0 0 0 0 0 0 0 0 0 0 0 0]\n [0 0 0 0 0 0 0 0 0 0 0 0 0 0 0 0]\n [0 0 0 0 0 0 0 0 0 0 0 0 0 0 0 0]\n [0 0 0 0 0 0 0 0 0 0 0 0 0 0 1 1]\n [0 0 0 0 0 0 0 0 0 0 0 0 0 0 0 0]\n [0 0 0 0 0 0 0 0 0 0 0 0 0 0 0 0]\n [0 0 0 0 0 0 0 3 1 1 1 1 0 0 0 0]\n [1 1 1 1 1 1 0 0 0 0 0 0 0 0 0 0]\n [1 1 1 1 1 1 0 0 0 0 0 0 0 0 0 0]]'
p293
I12
tp294
I0
s(g78
I5
tp295
I0
s(g36
I0
tp296
I0
s(g129
I13
tp297
F0.2875
s(g82
I9
tp298
I0
s(g84
I12
tp299
F0.0
s(g106
I13
tp300
I0
s(g90
I9
tp301
F0.0
s(g149
I11
tp302
I0
s(g96
I4
tp303
I0
s(g68
I6
tp304
F0.5
s(g117
I8
tp305
I0
s(g120
I12
tp306
I0
s(g293
I11
tp307
I0
s(g78
I10
tp308
I0
s(g18
I10
tp309
I0
s(g129
I10
tp310
I0
s(g82
I0
tp311
I0
s(g151
I13
tp312
I0
s(g84
I11
tp313
I0
s(g106
I4
tp314
I0
s(g164
I9
tp315
I0
s(g108
I2
tp316
F0.0
s(g90
I6
tp317
I0
s(g166
I12
tp318
I0
s(g104
I12
tp319
I0
s(g139
I6
tp320
F0.06159703515625001
s(g50
I0
tp321
I0
s(g141
I2
tp322
I0
s(g113
I7
tp323
I0
s(g96
I3
tp324
I0
s(g117
I1
tp325
I0
s(g191
I7
tp326
I0
s(g151
I11
tp327
I0
s(g120
I7
tp328
F-0.25
s(g293
I2
tp329
I0
s(g18
I13
tp330
F-0.225375
s(g125
I0
tp331
I0
s(g129
I3
tp332
I0
s(g178
I5
tp333
I0
s(g197
I10
tp334
I0
s(g106
I3
tp335
I0
s(g164
I2
tp336
I0
s(g101
I4
tp337
I0
s(g108
I9
tp338
F-0.2301256520996094
s(g166
I11
tp339
I0
s(g168
I3
tp340
F-24.5
s(g74
I9
tp341
I0
s(g139
I13
tp342
I0
s(g172
I6
tp343
I0
s(g141
I5
tp344
I0
s(g144
I9
tp345
F-0.08437499999999998
s(g117
I6
tp346
I0
s(g147
I7
tp347
I0
s(g222
I1
tp348
I0
s(g181
I10
tp349
I0
s(g18
I4
tp350
F0.017403471679687532
s(g155
I7
tp351
F0.25
s(g125
I11
tp352
I0
s(g127
I7
tp353
F0.0
s(g187
I3
tp354
I0
s(g158
I12
tp355
I0
s(g160
I9
tp356
I0
s(g18
I1
tp357
I0
s(g195
I0
tp358
I0
s(g197
I13
tp359
F0.75
s(g133
I0
tp360
I0
s(g56
I5
tp361
I0
s(S'[[0 0 0 0 0 0 0 0 0 0 0 0 0 0 0 0]\n [0 0 0 0 0 0 0 0 0 0 0 0 0 0 0 0]\n [0 0 0 0 0 0 0 0 0 0 0 0 0 0 0 0]\n [0 0 0 0 0 0 0 0 0 0 0 0 0 0 0 0]\n [0 0 0 0 0 0 0 0 0 0 0 0 0 0 0 0]\n [0 0 0 0 0 0 0 0 0 0 0 0 0 0 0 0]\n [0 0 0 0 0 0 0 0 0 0 0 0 0 0 0 0]\n [0 0 0 0 0 0 0 0 0 0 0 0 0 0 0 0]\n [0 0 0 0 0 0 0 0 0 0 0 0 0 0 0 0]\n [0 0 0 0 0 0 0 0 0 0 0 0 0 0 0 0]\n [0 0 0 0 0 0 3 0 0 0 1 1 1 1 0 0]\n [1 1 1 1 1 1 1 1 0 0 0 0 0 0 0 0]\n [1 1 1 1 1 1 1 1 0 0 0 0 0 0 0 0]]'
p362
I4
tp363
I0
s(g168
I4
tp364
I0
s(g74
I0
tp365
F0.0
s(g224
I13
tp366
I0
s(g172
I13
tp367
I0
s(g141
I12
tp368
I0
s(g144
I0
tp369
I0
s(g6
I13
tp370
I0
s(g147
I8
tp371
I0
s(g86
I9
tp372
I0
s(g178
I9
tp373
I0
s(g151
I5
tp374
I0
s(g181
I1
tp375
I0
s(g222
I9
tp376
I0
s(S'[[0 0 0 0 0 0 0 0 0 0 0 0 0 0 0 0]\n [0 0 0 0 0 0 0 0 0 0 0 0 0 0 0 0]\n [0 0 0 0 0 0 0 0 0 0 0 0 0 0 0 0]\n [0 0 0 0 0 0 0 0 0 0 0 0 0 0 0 0]\n [0 0 0 0 0 0 0 0 0 0 0 0 0 0 0 0]\n [0 0 0 0 0 0 0 0 0 0 0 0 0 0 0 0]\n [0 0 0 0 0 0 0 0 0 0 0 0 0 0 0 0]\n [0 0 0 0 0 0 0 0 0 0 0 0 0 0 0 0]\n [0 0 0 0 0 0 0 0 0 0 0 0 0 0 0 0]\n [0 0 0 0 0 0 0 3 0 0 0 0 0 0 0 0]\n [0 0 0 0 0 0 0 0 0 0 0 0 0 0 0 0]\n [1 1 1 1 1 1 1 1 1 1 1 1 1 1 0 0]\n [1 1 1 1 1 1 1 1 1 1 1 1 1 1 0 0]]'
p377
I4
tp378
I0
s(g212
I2
tp379
I0
s(g155
I0
tp380
I0
s(g214
I6
tp381
I0
s(g56
I11
tp382
I0
s(g158
I7
tp383
I0
s(g22
I8
tp384
F0.2654854785899321
s(g160
I0
tp385
I0
s(g24
I5
tp386
I0
s(g193
I8
tp387
I0
s(g195
I11
tp388
I0
s(g149
I13
tp389
I0
s(g90
I1
tp390
I0
s(g34
I8
tp391
I0
s(g168
I13
tp392
I0
s(g224
I10
tp393
I0
s(g48
I13
tp394
I0
s(g6
I4
tp395
I0
s(g178
I6
tp396
I0
s(g44
I12
tp397
F0.09025
s(g208
I6
tp398
I0
s(g12
I8
tp399
I0
s(g183
I5
tp400
F-0.25
s(g212
I5
tp401
I0
s(g16
I0
tp402
I0
s(g187
I13
tp403
I0
s(g22
I3
tp404
I0
s(g24
I12
tp405
I0
s(g72
I5
tp406
I0
s(g193
I1
tp407
I0
s(g26
I6
tp408
I0
s(g28
I4
tp409
F-0.25
s(g34
I1
tp410
F0.0
s(g38
I3
tp411
F0.35
s(g44
I3
tp412
I0
s(g224
I3
tp413
I0
s(g46
I12
tp414
I0
s(g48
I10
tp415
I0
s(g52
I2
tp416
I0
s(g54
I4
tp417
I0
s(g4
I7
tp418
I0
s(g6
I3
tp419
I0
s(g8
I7
tp420
I0
s(g44
I5
tp421
I0
s(g12
I7
tp422
I0
s(g14
I1
tp423
I0
s(g212
I12
tp424
I0
s(g16
I9
tp425
I0
s(g65
I12
tp426
I0
s(g20
I12
tp427
I0
s(g24
I11
tp428
I0
s(g74
I5
tp429
I0
s(g26
I13
tp430
I0
s(g28
I3
tp431
F-0.16102609352722125
s(g30
I8
tp432
I0
s(g32
I10
tp433
F0.8237190625
s(g34
I6
tp434
F-0.25
s(g36
I10
tp435
I0
s(g38
I8
tp436
I0
s(g40
I7
tp437
I0
s(g149
I12
tp438
I0
s(g42
I4
tp439
F-0.14271722406886317
s(g46
I5
tp440
I0
s(g48
I3
tp441
I0
s(g222
I6
tp442
I0
s(g52
I9
tp443
I0
s(g54
I3
tp444
I0
s(g58
I10
tp445
I0
s(g8
I8
tp446
I0
s(g61
I6
tp447
I0
s(g82
I4
tp448
I0
s(g63
I8
tp449
F0.0
s(g14
I8
tp450
I0
s(g93
I4
tp451
I0
s(g65
I7
tp452
I0
s(g20
I5
tp453
I0
s(g68
I8
tp454
I0
s(g70
I6
tp455
I0
s(g104
I0
tp456
I0
s(g28
I10
tp457
F-0.15932912251686382
s(g30
I1
tp458
F-0.25
s(g32
I1
tp459
I0
s(g78
I0
tp460
I0
s(g36
I5
tp461
I0
s(g40
I0
tp462
I0
s(g104
I11
tp463
I0
s(g84
I1
tp464
F-0.09187580796540526
s(g50
I1
tp465
I0
s(g54
I10
tp466
I0
s(g58
I1
tp467
I0
s(g101
I5
tp468
I0
s(g362
I8
tp469
I0
s(g63
I1
tp470
F0.0
s(g93
I3
tp471
I0
s(g96
I9
tp472
I0
s(g20
I2
tp473
I0
s(g68
I3
tp474
I0
s(g86
I2
tp475
I0
s(g30
I6
tp476
I0
s(g293
I8
tp477
I0
s(g78
I9
tp478
F-0.5
s(g101
I3
tp479
I0
s(g129
I9
tp480
I0
s(g82
I5
tp481
I0
s(g84
I8
tp482
I0
s(g86
I3
tp483
I0
s(g362
I9
tp484
I0
s(g377
I1
tp485
I0
s(g101
I12
tp486
I0
s(g93
I10
tp487
I0
s(g113
I0
tp488
I0
s(g96
I0
tp489
I0
s(g117
I12
tp490
I0
s(g149
I3
tp491
I0
s(g120
I8
tp492
I0
s(g293
I7
tp493
I0
s(g104
I8
tp494
I0
s(g125
I5
tp495
I0
s(g127
I9
tp496
I0
s(g129
I6
tp497
I0
s(g362
I0
tp498
I0
s(g133
I10
tp499
F1.0
s(g164
I13
tp500
I0
s(g377
I8
tp501
I0
s(g101
I11
tp502
I0
s(g166
I8
tp503
I0
s(g46
I7
tp504
I0
s(g191
I8
tp505
I0
s(g139
I2
tp506
F-0.2
s(g141
I6
tp507
I0
s(g113
I11
tp508
I0
s(g56
I12
tp509
I0
s(g117
I5
tp510
I0
s(g147
I2
tp511
I0
s(g18
I3
tp512
I0
s(g222
I2
tp513
F0.25
s(g120
I3
tp514
F0.0
s(g104
I7
tp515
I0
s(g155
I10
tp516
I0
s(g125
I12
tp517
I0
s(g127
I2
tp518
I0
s(g158
I9
tp519
I0
s(g149
I7
tp520
I0
s(g133
I3
tp521
I0
s(g164
I6
tp522
I0
s(g166
I7
tp523
I0
s(g197
I1
tp524
I0
s(g168
I7
tp525
I0
s(g191
I3
tp526
I0
s(g139
I9
tp527
I0
s(g172
I2
tp528
I0
s(g141
I9
tp529
I0
s(g144
I5
tp530
F-0.25
s(g147
I11
tp531
I0
s(g178
I12
tp532
I0
s(g222
I13
tp533
I0
s(g208
I12
tp534
I0
s(g181
I6
tp535
I0
s(g183
I11
tp536
I0
s(g155
I3
tp537
I0
s(g214
I5
tp538
I0
s(g187
I7
tp539
I0
s(g158
I0
tp540
I0
s(g293
I6
tp541
I0
s(g160
I5
tp542
F0.12170117187500001
s(g195
I4
tp543
I0
s(g149
I8
tp544
I0
s(g133
I4
tp545
I0
s(g168
I8
tp546
I0
s(g224
I9
tp547
I0
s(g172
I9
tp548
I0
s(g4
I13
tp549
I0
s(g6
I9
tp550
I0
s(g147
I12
tp551
I0
s(g106
I12
tp552
I0
s(g10
I8
tp553
F-0.25
s(g208
I11
tp554
I0
s(g12
I13
tp555
I0
s(g183
I2
tp556
I0
s(g212
I6
tp557
F-0.05990041408889665
s(g214
I2
tp558
I0
s(g22
I12
tp559
I0
s(g24
I1
tp560
I0
s(g193
I4
tp561
I0
s(g26
I3
tp562
I0
s(g151
I12
tp563
I0
s(g34
I12
tp564
I0
s(g224
I6
tp565
I0
s(g48
I9
tp566
I0
s(g52
I7
tp567
I0
s(g4
I10
tp568
F-0.018906250000000013
s(g6
I0
tp569
I0
s(g8
I2
tp570
I0
s(g61
I12
tp571
I0
s(g86
I12
tp572
I0
s(g178
I2
tp573
I0
s(g44
I0
tp574
I0
s(g208
I2
tp575
F1.3125
s(g12
I4
tp576
I0
s(g14
I6
tp577
F0.6875
s(g212
I9
tp578
F-0.2
s(g16
I4
tp579
I0
s(g214
I11
tp580
I0
s(g22
I7
tp581
I0
s(g70
I8
tp582
I0
s(g24
I8
tp583
I0
s(g72
I1
tp584
I0
s(g26
I10
tp585
I0
s(g28
I0
tp586
F0.010447514730074166
s(g34
I5
tp587
F-0.25
s(g90
I8
tp588
I0
s(g38
I7
tp589
I0
s(g40
I10
tp590
I0
s(g362
I7
tp591
F1.891203125
s(g42
I1
tp592
F-0.23346158206298828
s(g46
I8
tp593
I0
s(g48
I6
tp594
F-23.153125
s(g50
I11
tp595
I0
s(g54
I0
tp596
I0
s(g4
I3
tp597
I0
s(g8
I11
tp598
I0
s(g61
I11
tp599
I0
s(g12
I3
tp600
I0
s(g63
I11
tp601
F0.0
s(g14
I13
tp602
I0
s(g377
I11
tp603
F0.5
s(g362
I3
tp604
I0
s(g90
I3
tp605
F0.0
s(g65
I8
tp606
F2.034375
s(g20
I8
tp607
I0
s(g70
I3
tp608
I0
s(g72
I10
tp609
F0.7992187500000001
s(g30
I12
tp610
I0
s(g32
I6
tp611
I0
s(g36
I6
tp612
I0
s(g38
I12
tp613
I0
s(g40
I3
tp614
I0
s(g42
I8
tp615
F0.0
s(g46
I1
tp616
I0
s(g84
I6
tp617
F-0.4125
s(g50
I2
tp618
I0
s(g58
I6
tp619
F2.0
s(g8
I12
tp620
I0
s(g61
I2
tp621
I0
s(g149
I4
tp622
I0
s(g63
I4
tp623
I0
s(g93
I0
tp624
I0
s(g65
I3
tp625
I0
s(g20
I1
tp626
F0.0
s(g68
I12
tp627
I0
s(g82
I12
tp628
I0
s(g30
I5
tp629
I0
s(g293
I13
tp630
I0
s(g78
I4
tp631
I0
s(g36
I1
tp632
I0
s(g129
I12
tp633
I0
s(g82
I10
tp634
I0
s(g191
I11
tp635
I0
s(g84
I13
tp636
F-0.053472279422259184
s(g166
I2
tp637
I0
s(g377
I2
tp638
I0
s(g101
I1
tp639
I0
s(g96
I5
tp640
I0
s(g68
I7
tp641
I0
s(g117
I11
tp642
I0
s(g191
I6
tp643
I0
s(g16
I13
tp644
I0
s(g120
I13
tp645
I0
s(g293
I4
tp646
I0
s(g78
I13
tp647
I0
s(g104
I13
tp648
I0
s(g125
I6
tp649
I0
s(g129
I5
tp650
I0
s(g82
I1
tp651
I0
s(g222
I5
tp652
I0
s(g362
I5
tp653
I0
s(g164
I8
tp654
I0
s(g377
I5
tp655
I0
s(g101
I8
tp656
I0
s(g166
I13
tp657
F1.125
s(g139
I7
tp658
F0.0
s(g141
I3
tp659
I0
s(g113
I4
tp660
I0
s(g117
I0
tp661
I0
s(g151
I10
tp662
F0.3521071635399472
s(g181
I12
tp663
I0
s(g120
I4
tp664
I0
s(g293
I3
tp665
I0
s(g18
I2
tp666
I0
s(g155
I13
tp667
I0
s(g125
I1
tp668
I0
s(g127
I13
tp669
I0
s(g158
I10
tp670
I0
s(g129
I2
tp671
I0
s(g18
I0
tp672
F0.0
s(g197
I11
tp673
I0
s(g164
I1
tp674
I0
s(g108
I10
tp675
I0
s(g56
I3
tp676
I0
s(g106
I11
tp677
I0
s(g168
I2
tp678
I0
s(g74
I10
tp679
F1.0290303931266784
s(g172
I7
tp680
I0
s(g141
I10
tp681
I0
s(g144
I10
tp682
I0
s(g147
I6
tp683
I0
s(g151
I3
tp684
I0
s(g181
I11
tp685
F1.5625
s(g222
I8
tp686
I0
s(g108
I1
tp687
F0.0
s(g183
I8
tp688
I0
s(g18
I5
tp689
I0
s(g155
I6
tp690
I0
s(g125
I8
tp691
I0
s(g127
I6
tp692
I0
s(g187
I0
tp693
I0
s(g158
I13
tp694
I0
s(g160
I10
tp695
F-0.20249999999999999
s(g195
I1
tp696
I0
s(g197
I2
tp697
F0.5
s(g133
I7
tp698
I0
s(g56
I4
tp699
I0
s(g168
I11
tp700
I0
s(g74
I1
tp701
I0
s(g224
I12
tp702
F0.75
s(g141
I13
tp703
I0
s(g144
I1
tp704
F0.5815217187499999
s(g178
I8
tp705
I0
s(g197
I9
tp706
I0
s(g151
I4
tp707
I0
s(g208
I8
tp708
I0
s(g181
I2
tp709
I0
s(g212
I3
tp710
F0.05
s(g214
I1
tp711
I0
s(g187
I11
tp712
I0
s(g158
I4
tp713
I0
s(g22
I9
tp714
I0
s(g160
I1
tp715
F0.0
s(g24
I6
tp716
I0
s(g193
I11
tp717
F-0.25
s(g26
I0
tp718
I0
s(g195
I8
tp719
F1.0
s(g197
I5
tp720
I0
s(g187
I10
tp721
I0
s(g34
I11
tp722
F0.0
s(g168
I12
tp723
I0
s(g10
I3
tp724
I0
s(g224
I5
tp725
I0
s(g48
I12
tp726
I0
s(g52
I4
tp727
I0
s(g4
I9
tp728
I0
s(g6
I5
tp729
I0
s(g178
I1
tp730
I0
s(g10
I12
tp731
F-0.1875
s(g208
I7
tp732
I0
s(g12
I9
tp733
I0
s(g183
I6
tp734
I0
s(g212
I10
tp735
I0
s(g16
I3
tp736
I0
s(g22
I0
tp737
I0
s(g24
I13
tp738
F0.875
s(g72
I4
tp739
I0
s(g191
I2
tp740
I0
s(g193
I0
tp741
I0
s(g26
I7
tp742
I0
s(g28
I5
tp743
F-0.09930894565126513
s(g151
I6
tp744
I0
s(g32
I12
tp745
F-0.2625
s(g34
I0
tp746
F-0.1875
s(g151
I9
tp747
I0
s(g38
I2
tp748
I0
s(g40
I13
tp749
I0
s(g197
I4
tp750
I0
s(g42
I2
tp751
I0
s(g224
I2
tp752
I0
s(g46
I11
tp753
I0
s(g48
I5
tp754
I0
s(g50
I12
tp755
I0
s(g52
I3
tp756
I0
s(g54
I5
tp757
I0
s(g4
I6
tp758
I0
s(g58
I12
tp759
I0
s(g8
I6
tp760
I0
s(g61
I8
tp761
I0
s(g10
I7
tp762
F0.37171875000000004
s(g12
I0
tp763
I0
s(g14
I2
tp764
I0
s(g212
I13
tp765
I0
s(g16
I8
tp766
I0
s(g65
I13
tp767
I0
s(g70
I12
tp768
I0
s(g72
I13
tp769
I0
s(g28
I12
tp770
F0.010659396665216241
s(g30
I11
tp771
I0
s(g32
I11
tp772
F-0.16249999999999998
s(g36
I11
tp773
I0
s(g38
I11
tp774
I0
s(g40
I6
tp775
I0
s(g42
I5
tp776
F-0.003019407138350548
s(g18
I12
tp777
I0
s(g46
I4
tp778
I0
s(g48
I2
tp779
I0
s(g50
I7
tp780
I0
s(g52
I10
tp781
I0
s(g54
I12
tp782
I0
s(g58
I11
tp783
I0
s(g61
I7
tp784
I0
s(g63
I7
tp785
F0.0
s(g14
I9
tp786
I0
s(g93
I5
tp787
I0
s(g65
I4
tp788
I0
s(g20
I4
tp789
I0
s(g68
I9
tp790
I0
s(g70
I7
tp791
I0
s(g28
I11
tp792
F0.03320986803306857
s(g222
I12
tp793
I0
s(g30
I0
tp794
I0
s(g32
I2
tp795
F0.0
s(g78
I3
tp796
I0
s(g36
I2
tp797
I0
s(g42
I12
tp798
F0.0
s(g84
I2
tp799
F0.0
s(g54
I11
tp800
I0
s(g58
I2
tp801
I0
s(g101
I6
tp802
I0
s(g63
I0
tp803
I0
s(g93
I12
tp804
I0
s(g96
I10
tp805
I0
s(g68
I0
tp806
I0
s(g293
I9
tp807
I0
s(g78
I8
tp808
I0
s(g106
I2
tp809
F1.0625
s(g129
I8
tp810
I0
s(g82
I6
tp811
I0
s(g84
I9
tp812
F0.0
s(g106
I10
tp813
I0
s(g164
I11
tp814
I0
s(g108
I0
tp815
F1.1326569466648708
s(g90
I4
tp816
I0
s(g139
I4
tp817
F-0.05539882812500002
s(g93
I11
tp818
I0
s(g113
I1
tp819
I0
s(g96
I1
tp820
F0.9
s(g56
I13
tp821
I0
s(g56
I0
tp822
I0
s(g120
I9
tp823
F0.0
s(g293
I0
tp824
I0
s(g104
I9
tp825
I0
s(g108
I4
tp826
F0.003481772197265625
s(g125
I2
tp827
I0
s(g127
I8
tp828
I0
s(g129
I1
tp829
I0
s(g106
I1
tp830
I0
s(g133
I9
tp831
I0
s(g164
I12
tp832
I0
s(g377
I9
tp833
I0
s(g166
I9
tp834
I0
s(g149
I9
tp835
I0
s(g191
I9
tp836
F1.3125
s(g139
I3
tp837
F-0.25
s(g172
I4
tp838
I0
s(g141
I7
tp839
I0
s(g113
I8
tp840
I0
s(g117
I4
tp841
I0
s(g147
I1
tp842
I0
s(g222
I3
tp843
I0
s(g151
I7
tp844
I0
s(g181
I8
tp845
I0
s(g120
I0
tp846
I0
s(g18
I6
tp847
F0.55960125
s(g155
I9
tp848
I0
s(g125
I13
tp849
I0
s(g127
I1
tp850
I0
s(g195
I2
tp851
I0
s(g149
I6
tp852
I0
s(g133
I2
tp853
I0
s(g164
I5
tp854
I0
s(g166
I0
tp855
I0
s(g168
I6
tp856
I0
s(g191
I0
tp857
I0
s(g139
I10
tp858
I0
s(g172
I3
tp859
I0
s(g144
I6
tp860
I0
s(g147
I10
tp861
I0
s(g191
I5
tp862
I0
s(g222
I10
tp863
I0
s(g208
I13
tp864
I0
s(g181
I7
tp865
I0
s(g183
I12
tp866
I0
s(g155
I2
tp867
I0
s(g214
I4
tp868
I0
s(g187
I4
tp869
I0
s(g158
I1
tp870
I0
s(g22
I10
tp871
I0
s(g160
I6
tp872
F0.0
s(g195
I5
tp873
I0
s(g197
I6
tp874
I0
s(g224
I8
tp875
I0
s(g172
I10
tp876
I0
s(g4
I12
tp877
I0
s(g6
I10
tp878
F1.125
s(g178
I4
tp879
I0
s(g10
I9
tp880
I0
s(g208
I4
tp881
I0
s(g183
I3
tp882
I0
s(g212
I7
tp883
I0
s(g214
I13
tp884
I0
s(g22
I13
tp885
I0
s(g24
I2
tp886
I0
s(g72
I7
tp887
I0
s(g193
I7
tp888
I0
s(g26
I4
tp889
I0
s(g195
I12
tp890
I0
s(g38
I1
tp891
I0
s(g106
I6
tp892
I0
s(g224
I1
tp893
I0
s(g48
I8
tp894
I0
s(g52
I0
tp895
I0
s(g4
I5
tp896
I0
s(g6
I1
tp897
I0
s(g8
I1
tp898
I0
s(g61
I13
tp899
I0
s(g10
I0
tp900
I0
s(g208
I3
tp901
I0
s(g12
I5
tp902
I0
s(g44
I8
tp903
I0
s(g14
I7
tp904
I0
s(g108
I12
tp905
F-0.5
s(g16
I7
tp906
F2.7643367021484377
s(g214
I10
tp907
I0
s(g22
I4
tp908
I0
s(g70
I9
tp909
I0
s(g24
I9
tp910
I0
s(g72
I0
tp911
I0
s(g26
I11
tp912
F-0.5
s(g28
I1
tp913
F-0.24811482510726623
s(g362
I13
tp914
I0
s(g32
I8
tp915
F0.0
s(g34
I4
tp916
F-0.25
s(g36
I12
tp917
I0
s(g38
I6
tp918
I0
s(g40
I9
tp919
I0
s(g42
I6
tp920
I0
s(g74
I12
tp921
I0
s(g48
I1
tp922
I0
s(g50
I8
tp923
I0
s(g54
I1
tp924
I0
s(g4
I2
tp925
I0
s(g58
I8
tp926
I0
s(g8
I10
tp927
I0
s(g61
I4
tp928
F0.75
s(g56
I1
tp929
I0
s(g63
I10
tp930
I0
s(g16
I12
tp931
I0
s(g65
I9
tp932
I0
s(g20
I11
tp933
I0
s(g68
I10
tp934
I0
s(g70
I0
tp935
I0
s(g72
I9
tp936
I0
s(g28
I8
tp937
F-0.08386374012241651
s(g32
I7
tp938
F0.0
s(g44
I10
tp939
I0
s(g36
I7
tp940
I0
s(g377
I0
tp941
I0
s(g40
I2
tp942
I0
s(g42
I9
tp943
I0
s(g10
I6
tp944
I0
s(g46
I0
tp945
I0
s(g84
I7
tp946
I0
s(g50
I3
tp947
I0
s(g54
I8
tp948
I0
s(g56
I6
tp949
I0
s(g58
I7
tp950
I0
s(g61
I3
tp951
I0
s(g151
I0
tp952
I0
s(g63
I3
tp953
F-0.1596527734375
s(g93
I1
tp954
I0
s(g65
I0
tp955
I0
s(g20
I0
tp956
I0
s(g68
I13
tp957
I0
s(g74
I7
tp958
I0
s(g30
I4
tp959
I0
s(g78
I7
tp960
F0.865625
s(g82
I11
tp961
I0
s(g86
I11
tp962
F0.034916864804687496
s(g108
I5
tp963
I0
s(g101
I2
tp964
F0.75
s(g93
I8
tp965
I0
s(g113
I2
tp966
I0
s(g96
I6
tp967
I0
s(g68
I4
tp968
I0
s(g117
I10
tp969
I0
s(g120
I10
tp970
I0
s(g293
I5
tp971
I0
s(g78
I12
tp972
I0
s(g18
I8
tp973
I0
s(g125
I7
tp974
I0
s(g127
I11
tp975
F0.8991928779503174
s(g129
I4
tp976
I0
s(g82
I2
tp977
I0
s(g362
I6
tp978
F1.1209875
s(g377
I10
tp979
I0
s(g90
I0
tp980
F0.0
s(g56
I9
tp981
F0.0
s(g362
I10
tp982
I0
s(g191
I10
tp983
I0
s(g139
I0
tp984
F-0.006153210178123342
s(g166
I4
tp985
I0
s(g141
I0
tp986
I0
s(g113
I5
tp987
F1.0625
s(g144
I12
tp988
I0
s(g117
I3
tp989
I0
s(g222
I4
tp990
I0
s(g181
I13
tp991
I0
s(g86
I4
tp992
I0
s(g120
I5
tp993
I0
s(g377
I6
tp994
I0
s(g104
I5
tp995
I0
s(g101
I13
tp996
I0
s(g155
I12
tp997
I0
s(g127
I12
tp998
I0
s(g158
I11
tp999
I0
s(g160
I12
tp1000
F0.0
s(g197
I8
tp1001
I0
s(g133
I13
tp1002
I0
s(g164
I0
tp1003
I0
s(g108
I11
tp1004
I0
s(g166
I5
tp1005
I0
s(g168
I1
tp1006
I0
s(g191
I13
tp1007
I0
s(g172
I0
tp1008
I0
s(g141
I11
tp1009
I0
s(g113
I12
tp1010
I0
s(g90
I11
tp1011
I0
s(g147
I5
tp1012
I0
s(g149
I1
tp1013
I0
s(g151
I2
tp1014
F-0.20399362447812408
s(g181
I4
tp1015
I0
s(g183
I9
tp1016
F-0.25
s(g155
I5
tp1017
I0
s(g125
I9
tp1018
I0
s(g127
I5
tp1019
I0
s(g187
I1
tp1020
I0
s(g158
I2
tp1021
I0
s(g377
I12
tp1022
I0
s(g160
I11
tp1023
I0
s(g193
I13
tp1024
I0
s(g195
I6
tp1025
I0
s(g197
I3
tp1026
I0
s(g133
I6
tp1027
I0
s(g158
I6
tp1028
F1.5
s(g168
I10
tp1029
I0
s(g191
I4
tp1030
I0
s(g44
I1
tp1031
F0.12027073489414347
s(g377
I13
tp1032
I0
s(g56
I2
tp1033
I0
s(g44
I4
tp1034
F0.005330558887275057
s(g178
I11
tp1035
I0
s(g10
I10
tp1036
I0
s(g208
I9
tp1037
I0
s(g181
I3
tp1038
I0
s(g44
I11
tp1039
F0.03553705924850038
s(g50
I6
tp1040
F0.75
s(g212
I0
tp1041
F0.025132324204364065
s(g377
I3
tp1042
I0
s(g214
I0
tp1043
I0
s(g187
I8
tp1044
I0
s(g158
I5
tp1045
I0
s(g160
I2
tp1046
I0
s(g24
I7
tp1047
I0
s(g74
I11
tp1048
F-0.5
s(g193
I10
tp1049
I0
s(g26
I1
tp1050
I0
s(g195
I9
tp1051
I0
s(g34
I10
tp1052
I0
s(g224
I4
tp1053
I0
s(g52
I5
tp1054
I0
s(g4
I8
tp1055
F0.4735046875
s(g6
I6
tp1056
I0
s(g178
I0
tp1057
I0
s(g10
I13
tp1058
F0.0
s(g208
I0
tp1059
I0
s(g12
I10
tp1060
F1.5625
s(g14
I4
tp1061
I0
s(g183
I7
tp1062
I0
s(g212
I11
tp1063
I0
s(g16
I2
tp1064
I0
s(g214
I9
tp1065
F0.0
s(g22
I1
tp1066
I0
s(g70
I10
tp1067
I0
s(g72
I3
tp1068
I0
s(g193
I3
tp1069
I0
s(g26
I8
tp1070
I0
s(g28
I6
tp1071
F-0.3535768899831149
s(g32
I13
tp1072
I0
s(g34
I3
tp1073
F0.0
s(g38
I5
tp1074
F0.4625
s(g40
I12
tp1075
F0.25
s(g144
I11
tp1076
I0
s(g42
I3
tp1077
F-0.5
s(g46
I10
tp1078
I0
s(g48
I4
tp1079
I0
s(g50
I13
tp1080
I0
s(g52
I12
tp1081
I0
s(g54
I6
tp1082
I0
s(g4
I1
tp1083
I0
s(g58
I13
tp1084
I0
s(g8
I5
tp1085
I0
s(g61
I9
tp1086
I0
s(g44
I7
tp1087
I0
s(g12
I1
tp1088
I0
s(g63
I13
tp1089
F-0.2246798452854435
s(g14
I3
tp1090
I0
s(g16
I11
tp1091
I0
s(g65
I10
tp1092
I0
s(g70
I13
tp1093
F0.5
s(g72
I12
tp1094
I0
s(g28
I13
tp1095
F0.045863573798968646
s(g86
I0
tp1096
I0
s(g30
I10
tp1097
I0
s(g32
I4
tp1098
F0.0
s(g36
I8
tp1099
I0
s(g38
I10
tp1100
I0
s(g40
I5
tp1101
I0
s(g42
I10
tp1102
I0
s(g46
I3
tp1103
F-0.17031250000000003
s(g84
I4
tp1104
F1.5625
s(g50
I4
tp1105
I0
s(g52
I11
tp1106
I0
s(g54
I13
tp1107
I0
s(g58
I4
tp1108
I0
s(g61
I0
tp1109
I0
s(g86
I6
tp1110
I0
s(g63
I6
tp1111
F0.0
s(g14
I10
tp1112
I0
s(g93
I6
tp1113
F0.875
s(g86
I13
tp1114
I0
s(g65
I5
tp1115
I0
s(g96
I12
tp1116
I0
s(g20
I7
tp1117
I0
s(g70
I4
tp1118
I0
s(g30
I3
tp1119
F-0.25
s(g32
I3
tp1120
F-0.375
s(g78
I2
tp1121
I0
s(g36
I3
tp1122
I0
s(g362
I1
tp1123
I0
s(g42
I13
tp1124
F0.3726519986828829
s(g82
I8
tp1125
I0
s(g84
I3
tp1126
F0.0
s(g362
I12
tp1127
I0
s(g58
I3
tp1128
I0
s(g101
I7
tp1129
I0
s(g93
I13
tp1130
I0
s(g96
I11
tp1131
I0
s(g68
I1
tp1132
I0
s(g117
I9
tp1133
I0
s(g293
I10
tp1134
I0
s(g78
I11
tp1135
F0.0
s(g129
I11
tp1136
I0
s(g82
I7
tp1137
I0
s(g84
I10
tp1138
I0
s(g362
I11
tp1139
I0
s(g164
I10
tp1140
I0
s(g377
I7
tp1141
I0
s(g90
I7
tp1142
F0.0
s(g149
I10
tp1143
I0
s(g139
I5
tp1144
F-0.25
s(g113
I6
tp1145
I0
s(g96
I2
tp1146
I0
s(g10
I4
tp1147
I0
s(g120
I6
tp1148
I0
s(g293
I1
tp1149
F0.75
s(g104
I10
tp1150
I0
s(g125
I3
tp1151
I0
s(g129
I0
tp1152
I0
s(g44
I6
tp1153
I0
s(g362
I2
tp1154
I0
s(g133
I8
tp1155
I0
s(g164
I3
tp1156
F-0.2625
s(g108
I8
tp1157
F-0.2
s(g166
I10
tp1158
I0
s(g74
I8
tp1159
F0.0
s(g18
I11
tp1160
I0
s(g139
I12
tp1161
I0
s(g172
I5
tp1162
I0
s(g141
I4
tp1163
I0
s(g113
I9
tp1164
I0
s(g144
I8
tp1165
I0
s(g117
I7
tp1166
I0
s(g147
I0
tp1167
I0
s(g74
I2
tp1168
F0.0
s(g222
I0
tp1169
I0
s(g181
I9
tp1170
I0
s(g120
I1
tp1171
I0
s(g104
I1
tp1172
I0
s(g155
I8
tp1173
I0
s(g125
I10
tp1174
I0
s(g127
I0
tp1175
I0
s(g187
I2
tp1176
I0
s(g160
I8
tp1177
I0
s(g195
I3
tp1178
I0
s(g149
I5
tp1179
F1.0
s(g133
I1
tp1180
I0
s(g164
I4
tp1181
F0.26184375000000004
s(g90
I12
tp1182
F0.035625
s(g166
I1
tp1183
I0
s(g168
I5
tp1184
I0
s(g191
I1
tp1185
I0
s(g139
I11
tp1186
I0
s(g172
I12
tp1187
I0
s(g144
I7
tp1188
F0.0
s(g6
I12
tp1189
I0
s(g147
I9
tp1190
F2.096875
s(g222
I11
tp1191
I0
s(g181
I0
tp1192
I0
s(g183
I13
tp1193
I0
s(g155
I1
tp1194
I0
s(g214
I7
tp1195
I0
s(g187
I5
tp1196
F-0.25
s(g144
I2
tp1197
F0.0
s(g22
I11
tp1198
I0
s(g160
I7
tp1199
F0.0
s(g24
I4
tp1200
I0
s(g193
I9
tp1201
I0
s(g195
I10
tp1202
I0
s(g197
I7
tp1203
I0
s(g34
I9
tp1204
F-0.25
s(g106
I5
tp1205
I0
s(g86
I7
tp1206
I0
s(g224
I11
tp1207
I0
s(g86
I10
tp1208
I0
s(g172
I11
tp1209
F1.0625
s(g6
I11
tp1210
I0
s(g178
I7
tp1211
I0
s(g44
I13
tp1212
F0.11912153906249998
s(g208
I5
tp1213
I0
s(g44
I9
tp1214
I0
s(g108
I3
tp1215
F-0.5
s(g183
I4
tp1216
I0
s(g212
I4
tp1217
I0
s(g16
I1
tp1218
I0
s(g214
I12
tp1219
I0
s(g187
I12
tp1220
I0
s(g22
I2
tp1221
I0
s(g24
I3
tp1222
I0
s(g72
I6
tp1223
I0
s(g193
I6
tp1224
F-0.25
s(g26
I5
tp1225
I0
s(g195
I13
tp1226
I0
s(g38
I0
tp1227
I0
s(g183
I0
tp1228
I0
s(g224
I0
tp1229
I0
s(g46
I13
tp1230
I0
s(g56
I10
tp1231
I0
s(g48
I11
tp1232
I0
s(g52
I1
tp1233
I0
stp1234
Rp1235
.